(dp0
S'!'
p1
(dp2
g1
F0.0005995203836930455
sS' '
p3
F0.9148681055155875
sS'"'
p4
F0.0005995203836930455
sS"'"
p5
F0.0005995203836930455
sS')'
p6
F0.0005995203836930455
sS'('
p7
F0.0005995203836930455
sS'-'
p8
F0.0005995203836930455
sS','
p9
F0.0005995203836930455
sS'.'
p10
F0.0005995203836930455
sS'1'
p11
F0.0005995203836930455
sS'0'
p12
F0.0005995203836930455
sS'3'
p13
F0.0005995203836930455
sS'2'
p14
F0.0005995203836930455
sS'5'
p15
F0.0005995203836930455
sS'4'
p16
F0.0005995203836930455
sS'7'
p17
F0.0005995203836930455
sS'6'
p18
F0.0005995203836930455
sS'9'
p19
F0.0005995203836930455
sS'8'
p20
F0.0005995203836930455
sS'?'
p21
F0.0005995203836930455
sS'A'
p22
F0.0005995203836930455
sS'C'
p23
F0.0005995203836930455
sS'B'
p24
F0.0005995203836930455
sS'E'
p25
F0.0005995203836930455
sS'D'
p26
F0.0005995203836930455
sS'G'
p27
F0.0005995203836930455
sS'F'
p28
F0.0005995203836930455
sS'I'
p29
F0.0005995203836930455
sS'H'
p30
F0.0005995203836930455
sS'K'
p31
F0.0005995203836930455
sS'J'
p32
F0.0005995203836930455
sS'M'
p33
F0.0005995203836930455
sS'L'
p34
F0.0005995203836930455
sS'O'
p35
F0.0005995203836930455
sS'N'
p36
F0.0005995203836930455
sS'Q'
p37
F0.0005995203836930455
sS'P'
p38
F0.0005995203836930455
sS'S'
p39
F0.0005995203836930455
sS'R'
p40
F0.0005995203836930455
sS'U'
p41
F0.0005995203836930455
sS'T'
p42
F0.0005995203836930455
sS'W'
p43
F0.0005995203836930455
sS'V'
p44
F0.0005995203836930455
sS'Y'
p45
F0.0005995203836930455
sS'X'
p46
F0.0005995203836930455
sS'Z'
p47
F0.0005995203836930455
sS'a'
p48
F0.0005995203836930455
sS'c'
p49
F0.0005995203836930455
sS'b'
p50
F0.0005995203836930455
sS'e'
p51
F0.0005995203836930455
sS'd'
p52
F0.0005995203836930455
sS'g'
p53
F0.0005995203836930455
sS'f'
p54
F0.0005995203836930455
sS'i'
p55
F0.0005995203836930455
sS'h'
p56
F0.0005995203836930455
sS'k'
p57
F0.0005995203836930455
sS'j'
p58
F0.0005995203836930455
sS'm'
p59
F0.0005995203836930455
sS'l'
p60
F0.0005995203836930455
sS'o'
p61
F0.0005995203836930455
sS'n'
p62
F0.0005995203836930455
sS'q'
p63
F0.0005995203836930455
sS'p'
p64
F0.0005995203836930455
sS's'
p65
F0.0005995203836930455
sS'r'
p66
F0.0005995203836930455
sS'u'
p67
F0.0005995203836930455
sS't'
p68
F0.0005995203836930455
sS'w'
p69
F0.0005995203836930455
sS'v'
p70
F0.0005995203836930455
sS'y'
p71
F0.0005995203836930455
sS'x'
p72
F0.0005995203836930455
sS'z'
p73
F0.0005995203836930455
ssg3
(dp74
g1
F0.000771652602403465
sg3
F0.04476293961160152
sg4
F5.063337286111975e-07
sg5
F0.006105372099593819
sg6
F0.0022420457502903826
sg7
F0.0020293855842736797
sg8
F0.0025863526857459965
sg9
F0.047905246731362615
sg10
F0.03857857945034436
sg11
F0.003818768981185651
sg12
F0.0001012667457222395
sg13
F0.000771652602403465
sg14
F0.001402544428253017
sg15
F0.00040810498526062516
sg16
F0.0004891183818384168
sg17
F0.00030987624191005286
sg18
F0.0003200029164822768
sg19
F0.0001650647955272504
sg20
F0.00023392618261837322
sg21
F0.0028607855666532658
sg22
F0.0056203043875842915
sg23
F0.005802584529884323
sg24
F0.003417752668125583
sg25
F0.0019159668290647713
sg26
F0.002615720042005446
sg27
F0.0025428079850854336
sg28
F0.0024395159044487496
sg29
F0.0038248449859289856
sg30
F0.002813190196163813
sg31
F0.0011453268941185287
sg32
F0.0021752096981137044
sg33
F0.004644092958821903
sg34
F0.0021164749855948056
sg35
F0.0012354542978113218
sg36
F0.002171159028284815
sg37
F0.0001600014582411384
sg38
F0.0035990201429683915
sg39
F0.006026384037930472
sg40
F0.0025681246715159936
sg41
F0.0012425429700118787
sg42
F0.0029357229584877228
sg43
F0.0026136947070910014
sg44
F0.000756462590545129
sg45
F0.0007068418851412316
sg46
F4.455736811778538e-05
sg47
F9.114007115001554e-05
sg48
F0.08968081734415807
sg49
F0.03574311057012165
sg50
F0.03323270794366733
sg51
F0.0191049842479577
sg52
F0.02203463120170209
sg53
F0.010941871875287978
sg54
F0.031512185933846484
sg55
F0.049433361924311206
sg56
F0.033992208536584134
sg57
F0.002630910053863782
sg58
F0.0019544481924392222
sg59
F0.027430123413783012
sg60
F0.016704962374340628
sg61
F0.06012510493766526
sg62
F0.015206214537651483
sg63
F0.0014987478366891445
sg64
F0.030845850746994148
sg65
F0.04850879653586716
sg66
F0.019691318705689468
sg67
F0.008521596652526454
sg68
F0.12219351872574029
sg69
F0.04448546872832259
sg70
F0.004958019870560846
sg71
F0.004940804523788065
sg72
F1.822801423000311e-05
sg73
F9.620340843612752e-05
ssg4
(dp75
g1
F0.006944444444444444
sg3
F0.006944444444444444
sg4
F0.006944444444444444
sg5
F0.006944444444444444
sg6
F0.006944444444444444
sg7
F0.006944444444444444
sg8
F0.006944444444444444
sg9
F0.006944444444444444
sg10
F0.006944444444444444
sg11
F0.006944444444444444
sg12
F0.006944444444444444
sg13
F0.006944444444444444
sg14
F0.006944444444444444
sg15
F0.006944444444444444
sg16
F0.006944444444444444
sg17
F0.006944444444444444
sg18
F0.006944444444444444
sg19
F0.006944444444444444
sg20
F0.006944444444444444
sg21
F0.006944444444444444
sg22
F0.006944444444444444
sg23
F0.006944444444444444
sg24
F0.006944444444444444
sg25
F0.006944444444444444
sg26
F0.006944444444444444
sg27
F0.006944444444444444
sg28
F0.006944444444444444
sg29
F0.006944444444444444
sg30
F0.006944444444444444
sg31
F0.006944444444444444
sg32
F0.006944444444444444
sg33
F0.006944444444444444
sg34
F0.006944444444444444
sg35
F0.006944444444444444
sg36
F0.006944444444444444
sg37
F0.006944444444444444
sg38
F0.006944444444444444
sg39
F0.006944444444444444
sg40
F0.006944444444444444
sg41
F0.006944444444444444
sg42
F0.006944444444444444
sg43
F0.006944444444444444
sg44
F0.006944444444444444
sg45
F0.006944444444444444
sg46
F0.006944444444444444
sg47
F0.006944444444444444
sg48
F0.006944444444444444
sg49
F0.006944444444444444
sg50
F0.006944444444444444
sg51
F0.006944444444444444
sg52
F0.006944444444444444
sg53
F0.006944444444444444
sg54
F0.006944444444444444
sg55
F0.006944444444444444
sg56
F0.006944444444444444
sg57
F0.006944444444444444
sg58
F0.006944444444444444
sg59
F0.006944444444444444
sg60
F0.006944444444444444
sg61
F0.006944444444444444
sg62
F0.006944444444444444
sg63
F0.006944444444444444
sg64
F0.006944444444444444
sg65
F0.006944444444444444
sg66
F0.006944444444444444
sg67
F0.006944444444444444
sg68
F0.006944444444444444
sg69
F0.006944444444444444
sg70
F0.006944444444444444
sg71
F0.006944444444444444
sg72
F0.006944444444444444
sg73
F0.006944444444444444
ssg5
(dp76
g1
F2.6628321883154923e-05
sg3
F0.3516003621451776
sg4
F2.6628321883154923e-05
sg5
F0.3115513660329126
sg6
F2.6628321883154923e-05
sg7
F2.6628321883154923e-05
sg8
F0.00015976993129892953
sg9
F2.6628321883154923e-05
sg10
F0.00010651328753261969
sg11
F0.00010651328753261969
sg12
F2.6628321883154923e-05
sg13
F0.00021302657506523938
sg14
F0.00015976993129892953
sg15
F0.0007988496564946477
sg16
F0.00031953986259785906
sg17
F5.3256643766309845e-05
sg18
F0.00031953986259785906
sg19
F5.3256643766309845e-05
sg20
F5.3256643766309845e-05
sg21
F5.3256643766309845e-05
sg22
F0.0009053629440272674
sg23
F0.00042605315013047876
sg24
F0.0019172391755871545
sg25
F2.6628321883154923e-05
sg26
F0.0003727965063641689
sg27
F5.3256643766309845e-05
sg28
F2.6628321883154923e-05
sg29
F0.00015976993129892953
sg30
F5.3256643766309845e-05
sg31
F2.6628321883154923e-05
sg32
F2.6628321883154923e-05
sg33
F2.6628321883154923e-05
sg34
F2.6628321883154923e-05
sg35
F5.3256643766309845e-05
sg36
F0.00015976993129892953
sg37
F2.6628321883154923e-05
sg38
F2.6628321883154923e-05
sg39
F0.00010651328753261969
sg40
F2.6628321883154923e-05
sg41
F0.00015976993129892953
sg42
F2.6628321883154923e-05
sg43
F2.6628321883154923e-05
sg44
F2.6628321883154923e-05
sg45
F5.3256643766309845e-05
sg46
F2.6628321883154923e-05
sg47
F2.6628321883154923e-05
sg48
F0.0005858230814294083
sg49
F0.001384672737924056
sg50
F0.00021302657506523938
sg51
F0.0015444426692229857
sg52
F0.008095009852479096
sg53
F2.6628321883154923e-05
sg54
F2.6628321883154923e-05
sg55
F0.0005858230814294083
sg56
F0.00010651328753261969
sg57
F0.00015976993129892953
sg58
F2.6628321883154923e-05
sg59
F0.005165894445332055
sg60
F0.01043830217819673
sg61
F0.00010651328753261969
sg62
F0.000692336368962028
sg63
F2.6628321883154923e-05
sg64
F2.6628321883154923e-05
sg65
F0.238057197635405
sg66
F0.0072961601959844495
sg67
F0.00010651328753261969
sg68
F0.05272407732864675
sg69
F5.3256643766309845e-05
sg70
F0.005751717526761463
sg71
F2.6628321883154923e-05
sg72
F2.6628321883154923e-05
sg73
F2.6628321883154923e-05
ssg6
(dp77
g1
F0.00021635655560363478
sg3
F1.030722630895716
sg4
F0.00021635655560363478
sg5
F0.00021635655560363478
sg6
F0.00021635655560363478
sg7
F0.0038944180008654264
sg8
F0.00043271311120726956
sg9
F0.00021635655560363478
sg10
F0.00021635655560363478
sg11
F0.00021635655560363478
sg12
F0.00021635655560363478
sg13
F0.00021635655560363478
sg14
F0.00021635655560363478
sg15
F0.00021635655560363478
sg16
F0.00021635655560363478
sg17
F0.00021635655560363478
sg18
F0.00021635655560363478
sg19
F0.00021635655560363478
sg20
F0.00021635655560363478
sg21
F0.00021635655560363478
sg22
F0.00021635655560363478
sg23
F0.00021635655560363478
sg24
F0.00021635655560363478
sg25
F0.00021635655560363478
sg26
F0.00021635655560363478
sg27
F0.00021635655560363478
sg28
F0.00021635655560363478
sg29
F0.00021635655560363478
sg30
F0.00021635655560363478
sg31
F0.00021635655560363478
sg32
F0.00021635655560363478
sg33
F0.00021635655560363478
sg34
F0.00021635655560363478
sg35
F0.00021635655560363478
sg36
F0.00021635655560363478
sg37
F0.00021635655560363478
sg38
F0.00021635655560363478
sg39
F0.00021635655560363478
sg40
F0.00021635655560363478
sg41
F0.00021635655560363478
sg42
F0.00021635655560363478
sg43
F0.00021635655560363478
sg44
F0.00021635655560363478
sg45
F0.00021635655560363478
sg46
F0.00021635655560363478
sg47
F0.00021635655560363478
sg48
F0.00021635655560363478
sg49
F0.00021635655560363478
sg50
F0.00021635655560363478
sg51
F0.00021635655560363478
sg52
F0.00021635655560363478
sg53
F0.00021635655560363478
sg54
F0.00021635655560363478
sg55
F0.00021635655560363478
sg56
F0.00021635655560363478
sg57
F0.00021635655560363478
sg58
F0.00021635655560363478
sg59
F0.00021635655560363478
sg60
F0.00021635655560363478
sg61
F0.00021635655560363478
sg62
F0.00021635655560363478
sg63
F0.00021635655560363478
sg64
F0.00021635655560363478
sg65
F0.00021635655560363478
sg66
F0.00021635655560363478
sg67
F0.00021635655560363478
sg68
F0.00043271311120726956
sg69
F0.00021635655560363478
sg70
F0.00021635655560363478
sg71
F0.00021635655560363478
sg72
F0.00021635655560363478
sg73
F0.00021635655560363478
ssg7
(dp78
g1
F0.0002387774594078319
sg3
F1.1141356255969437
sg4
F0.0002387774594078319
sg5
F0.0002387774594078319
sg6
F0.0002387774594078319
sg7
F0.0002387774594078319
sg8
F0.0002387774594078319
sg9
F0.0002387774594078319
sg10
F0.0002387774594078319
sg11
F0.002387774594078319
sg12
F0.0002387774594078319
sg13
F0.0002387774594078319
sg14
F0.0002387774594078319
sg15
F0.0002387774594078319
sg16
F0.0004775549188156638
sg17
F0.0002387774594078319
sg18
F0.0009551098376313276
sg19
F0.0004775549188156638
sg20
F0.0002387774594078319
sg21
F0.0002387774594078319
sg22
F0.0002387774594078319
sg23
F0.0002387774594078319
sg24
F0.0002387774594078319
sg25
F0.0002387774594078319
sg26
F0.0002387774594078319
sg27
F0.0002387774594078319
sg28
F0.0002387774594078319
sg29
F0.0002387774594078319
sg30
F0.0002387774594078319
sg31
F0.0002387774594078319
sg32
F0.0002387774594078319
sg33
F0.0002387774594078319
sg34
F0.0002387774594078319
sg35
F0.0002387774594078319
sg36
F0.0002387774594078319
sg37
F0.0004775549188156638
sg38
F0.0002387774594078319
sg39
F0.0002387774594078319
sg40
F0.0002387774594078319
sg41
F0.0002387774594078319
sg42
F0.0004775549188156638
sg43
F0.0002387774594078319
sg44
F0.0002387774594078319
sg45
F0.0002387774594078319
sg46
F0.0002387774594078319
sg47
F0.0002387774594078319
sg48
F0.0033428844317096467
sg49
F0.004297994269340974
sg50
F0.0002387774594078319
sg51
F0.0002387774594078319
sg52
F0.0002387774594078319
sg53
F0.0002387774594078319
sg54
F0.0002387774594078319
sg55
F0.0002387774594078319
sg56
F0.0004775549188156638
sg57
F0.0002387774594078319
sg58
F0.0004775549188156638
sg59
F0.0002387774594078319
sg60
F0.0002387774594078319
sg61
F0.0002387774594078319
sg62
F0.0002387774594078319
sg63
F0.0002387774594078319
sg64
F0.0002387774594078319
sg65
F0.0002387774594078319
sg66
F0.0002387774594078319
sg67
F0.0002387774594078319
sg68
F0.0002387774594078319
sg69
F0.0002387774594078319
sg70
F0.0002387774594078319
sg71
F0.0002387774594078319
sg72
F0.0002387774594078319
sg73
F0.0002387774594078319
ssg8
(dp79
g1
F3.9647926413448574e-05
sg3
F0.2221869796209658
sg4
F3.9647926413448574e-05
sg5
F0.0003171834113075886
sg6
F3.9647926413448574e-05
sg7
F3.9647926413448574e-05
sg8
F0.2122749980176037
sg9
F3.9647926413448574e-05
sg10
F0.00023788755848069146
sg11
F0.01062564427880422
sg12
F0.0004757751169613829
sg13
F0.0028546507017682974
sg14
F0.0038854967885179606
sg15
F0.003013242407422092
sg16
F0.0017445087621917373
sg17
F0.001506621203711046
sg18
F0.0016652129093648403
sg19
F0.00023788755848069146
sg20
F0.0006343668226151772
sg21
F3.9647926413448574e-05
sg22
F0.004361271905479343
sg23
F0.00808817698834351
sg24
F0.0032511299659027833
sg25
F0.002061692173499326
sg26
F0.0016652129093648403
sg27
F0.0018238046150186346
sg28
F0.0026960589961145033
sg29
F0.002061692173499326
sg30
F0.0028546507017682974
sg31
F0.001030846086749663
sg32
F0.004678455316786932
sg33
F0.003013242407422092
sg34
F0.001585917056537943
sg35
F0.0011101419395765603
sg36
F0.001506621203711046
sg37
F3.9647926413448574e-05
sg38
F0.0038854967885179606
sg39
F0.009991277456189041
sg40
F0.001585917056537943
sg41
F0.0008722543810958687
sg42
F0.0027753548489414005
sg43
F0.0028546507017682974
sg44
F0.00039647926413448575
sg45
F0.0007929585282689715
sg46
F3.9647926413448574e-05
sg47
F0.0001585917056537943
sg48
F0.024423122670684323
sg49
F0.042026801998255495
sg50
F0.020220442470858774
sg51
F0.019665371501070495
sg52
F0.028784394576163667
sg53
F0.012052969629688368
sg54
F0.030687495044009198
sg55
F0.019665371501070495
sg56
F0.017920862738878756
sg57
F0.003964792641344857
sg58
F0.0019823963206724287
sg59
F0.024026643406549836
sg60
F0.02339227658393466
sg61
F0.028546507017682975
sg62
F0.007215922607247641
sg63
F0.0011101419395765603
sg64
F0.028229323606375388
sg65
F0.04940131631115693
sg66
F0.02252002220283879
sg67
F0.007374514312901435
sg68
F0.041709618586947904
sg69
F0.016652129093648403
sg70
F0.005233526286575212
sg71
F0.010942827690111807
sg72
F3.9647926413448574e-05
sg73
F0.00023788755848069146
ssg9
(dp80
g1
F1.0414063150878946e-05
sg3
F0.9855036240939765
sg4
F1.0414063150878946e-05
sg5
F1.0414063150878946e-05
sg6
F1.0414063150878946e-05
sg7
F1.0414063150878946e-05
sg8
F1.0414063150878946e-05
sg9
F1.0414063150878946e-05
sg10
F1.0414063150878946e-05
sg11
F0.0003332500208281263
sg12
F0.009122719320169958
sg13
F0.00037490627343164207
sg14
F0.00045821877863867365
sg15
F0.0011663750728984422
sg16
F0.0006456719153544947
sg17
F0.0003957343997334
sg18
F0.0002707656419228526
sg19
F0.0002707656419228526
sg20
F0.0003957343997334
sg21
F1.0414063150878946e-05
sg22
F1.0414063150878946e-05
sg23
F1.0414063150878946e-05
sg24
F1.0414063150878946e-05
sg25
F1.0414063150878946e-05
sg26
F2.0828126301757892e-05
sg27
F1.0414063150878946e-05
sg28
F1.0414063150878946e-05
sg29
F1.0414063150878946e-05
sg30
F1.0414063150878946e-05
sg31
F1.0414063150878946e-05
sg32
F1.0414063150878946e-05
sg33
F1.0414063150878946e-05
sg34
F1.0414063150878946e-05
sg35
F1.0414063150878946e-05
sg36
F1.0414063150878946e-05
sg37
F1.0414063150878946e-05
sg38
F1.0414063150878946e-05
sg39
F1.0414063150878946e-05
sg40
F1.0414063150878946e-05
sg41
F1.0414063150878946e-05
sg42
F2.0828126301757892e-05
sg43
F1.0414063150878946e-05
sg44
F1.0414063150878946e-05
sg45
F1.0414063150878946e-05
sg46
F1.0414063150878946e-05
sg47
F1.0414063150878946e-05
sg48
F1.0414063150878946e-05
sg49
F1.0414063150878946e-05
sg50
F1.0414063150878946e-05
sg51
F1.0414063150878946e-05
sg52
F1.0414063150878946e-05
sg53
F1.0414063150878946e-05
sg54
F1.0414063150878946e-05
sg55
F1.0414063150878946e-05
sg56
F1.0414063150878946e-05
sg57
F1.0414063150878946e-05
sg58
F1.0414063150878946e-05
sg59
F1.0414063150878946e-05
sg60
F1.0414063150878946e-05
sg61
F1.0414063150878946e-05
sg62
F1.0414063150878946e-05
sg63
F1.0414063150878946e-05
sg64
F1.0414063150878946e-05
sg65
F1.0414063150878946e-05
sg66
F1.0414063150878946e-05
sg67
F1.0414063150878946e-05
sg68
F1.0414063150878946e-05
sg69
F1.0414063150878946e-05
sg70
F1.0414063150878946e-05
sg71
F1.0414063150878946e-05
sg72
F1.0414063150878946e-05
sg73
F1.0414063150878946e-05
ssg10
(dp81
g1
F1.1366994793916384e-05
sg3
F0.9731966262759452
sg4
F1.1366994793916384e-05
sg5
F0.0004546797917566554
sg6
F1.1366994793916384e-05
sg7
F1.1366994793916384e-05
sg8
F0.0001364039375269966
sg9
F1.1366994793916384e-05
sg10
F1.1366994793916384e-05
sg11
F0.0015004433127969628
sg12
F0.0012503694273308023
sg13
F0.0012276354377429696
sg14
F0.0012276354377429696
sg15
F0.001955123104553618
sg16
F0.0005683497396958192
sg17
F0.0005456157501079864
sg18
F0.0006138177188714848
sg19
F0.0003637438334053243
sg20
F0.0008184236251619797
sg21
F1.1366994793916384e-05
sg22
F0.0009093595835133108
sg23
F0.0017505171982631232
sg24
F0.0002728078750539932
sg25
F0.0001364039375269966
sg26
F0.0005683497396958192
sg27
F9.093595835133107e-05
sg28
F0.00018187191670266214
sg29
F0.0002273398958783277
sg30
F0.0001364039375269966
sg31
F0.0002273398958783277
sg32
F9.093595835133107e-05
sg33
F0.0010230295314524746
sg34
F0.00040921181258098984
sg35
F6.82019687634983e-05
sg36
F0.001454975333621297
sg37
F9.093595835133107e-05
sg38
F0.000295541864641826
sg39
F0.004455861959215223
sg40
F0.0003637438334053243
sg41
F9.093595835133107e-05
sg42
F9.093595835133107e-05
sg43
F0.0001364039375269966
sg44
F1.1366994793916384e-05
sg45
F0.00034100984381749155
sg46
F1.1366994793916384e-05
sg47
F1.1366994793916384e-05
sg48
F1.1366994793916384e-05
sg49
F1.1366994793916384e-05
sg50
F1.1366994793916384e-05
sg51
F0.0009548275626889762
sg52
F6.82019687634983e-05
sg53
F0.0007274876668106485
sg54
F1.1366994793916384e-05
sg55
F1.1366994793916384e-05
sg56
F9.093595835133107e-05
sg57
F1.1366994793916384e-05
sg58
F1.1366994793916384e-05
sg59
F0.0017050492190874577
sg60
F1.1366994793916384e-05
sg61
F1.1366994793916384e-05
sg62
F1.1366994793916384e-05
sg63
F1.1366994793916384e-05
sg64
F0.0001364039375269966
sg65
F2.2733989587832767e-05
sg66
F1.1366994793916384e-05
sg67
F2.2733989587832767e-05
sg68
F2.2733989587832767e-05
sg69
F1.1366994793916384e-05
sg70
F1.1366994793916384e-05
sg71
F1.1366994793916384e-05
sg72
F1.1366994793916384e-05
sg73
F1.1366994793916384e-05
ssg11
(dp82
g1
F0.00010214504596527068
sg3
F0.22594484167517875
sg4
F0.00010214504596527068
sg5
F0.0010214504596527069
sg6
F0.0006128702757916241
sg7
F0.0024514811031664963
sg8
F0.010418794688457609
sg9
F0.020224719101123594
sg10
F0.014300306435137897
sg11
F0.03207354443309499
sg12
F0.1017364657814096
sg13
F0.02696629213483146
sg14
F0.04637385086823289
sg15
F0.05291113381001022
sg16
F0.02819203268641471
sg17
F0.03779366700715015
sg18
F0.039632277834525026
sg19
F0.2943820224719101
sg20
F0.08253319713993872
sg21
F0.00010214504596527068
sg22
F0.00010214504596527068
sg23
F0.00010214504596527068
sg24
F0.00010214504596527068
sg25
F0.00010214504596527068
sg26
F0.00010214504596527068
sg27
F0.00010214504596527068
sg28
F0.00010214504596527068
sg29
F0.00010214504596527068
sg30
F0.00010214504596527068
sg31
F0.00010214504596527068
sg32
F0.00010214504596527068
sg33
F0.00020429009193054137
sg34
F0.00010214504596527068
sg35
F0.00010214504596527068
sg36
F0.00010214504596527068
sg37
F0.00010214504596527068
sg38
F0.00010214504596527068
sg39
F0.00010214504596527068
sg40
F0.00010214504596527068
sg41
F0.00010214504596527068
sg42
F0.00010214504596527068
sg43
F0.00010214504596527068
sg44
F0.00010214504596527068
sg45
F0.00010214504596527068
sg46
F0.00010214504596527068
sg47
F0.00010214504596527068
sg48
F0.00020429009193054137
sg49
F0.00010214504596527068
sg50
F0.00020429009193054137
sg51
F0.00010214504596527068
sg52
F0.00010214504596527068
sg53
F0.00010214504596527068
sg54
F0.00010214504596527068
sg55
F0.00010214504596527068
sg56
F0.00010214504596527068
sg57
F0.00010214504596527068
sg58
F0.00010214504596527068
sg59
F0.00010214504596527068
sg60
F0.00010214504596527068
sg61
F0.00010214504596527068
sg62
F0.00010214504596527068
sg63
F0.00010214504596527068
sg64
F0.00010214504596527068
sg65
F0.0018386108273748722
sg66
F0.00010214504596527068
sg67
F0.00010214504596527068
sg68
F0.0006128702757916241
sg69
F0.00010214504596527068
sg70
F0.00010214504596527068
sg71
F0.00010214504596527068
sg72
F0.00010214504596527068
sg73
F0.00010214504596527068
ssg12
(dp83
g1
F0.0001137915339098771
sg3
F0.45789713245334546
sg4
F0.0001137915339098771
sg5
F0.01297223486572599
sg6
F0.0001137915339098771
sg7
F0.0001137915339098771
sg8
F0.03732362312243969
sg9
F0.05234410559854347
sg10
F0.021392808375056895
sg11
F0.007282658170232135
sg12
F0.3229403732362312
sg13
F0.0063723258989531175
sg14
F0.0061447428311333634
sg15
F0.008420573509330906
sg16
F0.00864815657715066
sg17
F0.010241238051888939
sg18
F0.0061447428311333634
sg19
F0.005006827492034593
sg20
F0.0063723258989531175
sg21
F0.0001137915339098771
sg22
F0.0009103322712790169
sg23
F0.0015930814747382794
sg24
F0.0001137915339098771
sg25
F0.0001137915339098771
sg26
F0.0001137915339098771
sg27
F0.0001137915339098771
sg28
F0.0002275830678197542
sg29
F0.0001137915339098771
sg30
F0.0001137915339098771
sg31
F0.0001137915339098771
sg32
F0.0001137915339098771
sg33
F0.0001137915339098771
sg34
F0.0001137915339098771
sg35
F0.0001137915339098771
sg36
F0.0001137915339098771
sg37
F0.0001137915339098771
sg38
F0.0001137915339098771
sg39
F0.0001137915339098771
sg40
F0.0001137915339098771
sg41
F0.0001137915339098771
sg42
F0.0004551661356395084
sg43
F0.0001137915339098771
sg44
F0.0001137915339098771
sg45
F0.0002275830678197542
sg46
F0.0001137915339098771
sg47
F0.0001137915339098771
sg48
F0.0001137915339098771
sg49
F0.0001137915339098771
sg50
F0.0001137915339098771
sg51
F0.0001137915339098771
sg52
F0.0001137915339098771
sg53
F0.0001137915339098771
sg54
F0.0001137915339098771
sg55
F0.0001137915339098771
sg56
F0.0001137915339098771
sg57
F0.0001137915339098771
sg58
F0.0001137915339098771
sg59
F0.0001137915339098771
sg60
F0.0001137915339098771
sg61
F0.0001137915339098771
sg62
F0.0001137915339098771
sg63
F0.0001137915339098771
sg64
F0.0001137915339098771
sg65
F0.004551661356395084
sg66
F0.0001137915339098771
sg67
F0.0001137915339098771
sg68
F0.0063723258989531175
sg69
F0.0001137915339098771
sg70
F0.0001137915339098771
sg71
F0.0001137915339098771
sg72
F0.0001137915339098771
sg73
F0.0001137915339098771
ssg13
(dp84
g1
F0.00032658393207054214
sg3
F0.43305029392553884
sg4
F0.00032658393207054214
sg5
F0.0013063357282821686
sg6
F0.00032658393207054214
sg7
F0.00032658393207054214
sg8
F0.03527106466361855
sg9
F0.02612671456564337
sg10
F0.03200522534291313
sg11
F0.046374918354016983
sg12
F0.18484650555192683
sg13
F0.032658393207054215
sg14
F0.041149575440888306
sg15
F0.05878510777269758
sg16
F0.042455911169170475
sg17
F0.039190071848465055
sg18
F0.041802743305029394
sg19
F0.024820378837361202
sg20
F0.038536903984323974
sg21
F0.00032658393207054214
sg22
F0.0006531678641410843
sg23
F0.00032658393207054214
sg24
F0.00032658393207054214
sg25
F0.00032658393207054214
sg26
F0.00032658393207054214
sg27
F0.00032658393207054214
sg28
F0.00032658393207054214
sg29
F0.00032658393207054214
sg30
F0.00032658393207054214
sg31
F0.00032658393207054214
sg32
F0.00032658393207054214
sg33
F0.0013063357282821686
sg34
F0.00032658393207054214
sg35
F0.00032658393207054214
sg36
F0.00032658393207054214
sg37
F0.00032658393207054214
sg38
F0.00032658393207054214
sg39
F0.00032658393207054214
sg40
F0.00032658393207054214
sg41
F0.00032658393207054214
sg42
F0.00032658393207054214
sg43
F0.00032658393207054214
sg44
F0.00032658393207054214
sg45
F0.00032658393207054214
sg46
F0.00032658393207054214
sg47
F0.00032658393207054214
sg48
F0.00032658393207054214
sg49
F0.00032658393207054214
sg50
F0.00032658393207054214
sg51
F0.00032658393207054214
sg52
F0.0045721750489875895
sg53
F0.00032658393207054214
sg54
F0.00032658393207054214
sg55
F0.00032658393207054214
sg56
F0.00032658393207054214
sg57
F0.00032658393207054214
sg58
F0.00032658393207054214
sg59
F0.00032658393207054214
sg60
F0.00032658393207054214
sg61
F0.00032658393207054214
sg62
F0.00032658393207054214
sg63
F0.00032658393207054214
sg64
F0.00032658393207054214
sg65
F0.00032658393207054214
sg66
F0.005878510777269758
sg67
F0.00032658393207054214
sg68
F0.003919007184846506
sg69
F0.00032658393207054214
sg70
F0.00032658393207054214
sg71
F0.00032658393207054214
sg72
F0.00032658393207054214
sg73
F0.00032658393207054214
ssg14
(dp85
g1
F0.0002101723413198823
sg3
F0.4098360655737705
sg4
F0.0002101723413198823
sg5
F0.008827238335435058
sg6
F0.0002101723413198823
sg7
F0.0002101723413198823
sg8
F0.03825136612021858
sg9
F0.030685161832702815
sg10
F0.024800336275746113
sg11
F0.04665825977301387
sg12
F0.12694409415720892
sg13
F0.039512400168137875
sg14
F0.04623791509037411
sg15
F0.08869272803699033
sg16
F0.04665825977301387
sg17
F0.03530895334174023
sg18
F0.031525851197982346
sg19
F0.026061370323665407
sg20
F0.029424127784783524
sg21
F0.0002101723413198823
sg22
F0.0002101723413198823
sg23
F0.0004203446826397646
sg24
F0.0002101723413198823
sg25
F0.0002101723413198823
sg26
F0.0002101723413198823
sg27
F0.0002101723413198823
sg28
F0.0002101723413198823
sg29
F0.0002101723413198823
sg30
F0.0004203446826397646
sg31
F0.0002101723413198823
sg32
F0.0002101723413198823
sg33
F0.0002101723413198823
sg34
F0.0002101723413198823
sg35
F0.0002101723413198823
sg36
F0.0002101723413198823
sg37
F0.0002101723413198823
sg38
F0.0002101723413198823
sg39
F0.0002101723413198823
sg40
F0.0002101723413198823
sg41
F0.0002101723413198823
sg42
F0.0002101723413198823
sg43
F0.0002101723413198823
sg44
F0.0002101723413198823
sg45
F0.0002101723413198823
sg46
F0.0002101723413198823
sg47
F0.0002101723413198823
sg48
F0.0008406893652795292
sg49
F0.0002101723413198823
sg50
F0.0002101723413198823
sg51
F0.0002101723413198823
sg52
F0.002101723413198823
sg53
F0.0002101723413198823
sg54
F0.0002101723413198823
sg55
F0.0002101723413198823
sg56
F0.0002101723413198823
sg57
F0.0002101723413198823
sg58
F0.0002101723413198823
sg59
F0.0002101723413198823
sg60
F0.0002101723413198823
sg61
F0.0002101723413198823
sg62
F0.0037831021437578815
sg63
F0.0002101723413198823
sg64
F0.0002101723413198823
sg65
F0.0004203446826397646
sg66
F0.0002101723413198823
sg67
F0.0002101723413198823
sg68
F0.0004203446826397646
sg69
F0.0002101723413198823
sg70
F0.0002101723413198823
sg71
F0.0002101723413198823
sg72
F0.0002101723413198823
sg73
F0.0002101723413198823
ssg15
(dp86
g1
F0.0002405002405002405
sg3
F0.37806637806637805
sg4
F0.0002405002405002405
sg5
F0.001443001443001443
sg6
F0.0002405002405002405
sg7
F0.0002405002405002405
sg8
F0.042328042328042326
sg9
F0.030303030303030304
sg10
F0.014911014911014911
sg11
F0.025493025493025494
sg12
F0.1697931697931698
sg13
F0.025012025012025013
sg14
F0.03222703222703223
sg15
F0.029822029822029823
sg16
F0.03848003848003848
sg17
F0.037999037999038
sg18
F0.030303030303030304
sg19
F0.06830206830206831
sg20
F0.06349206349206349
sg21
F0.0002405002405002405
sg22
F0.0002405002405002405
sg23
F0.0002405002405002405
sg24
F0.0002405002405002405
sg25
F0.0002405002405002405
sg26
F0.0002405002405002405
sg27
F0.0002405002405002405
sg28
F0.0002405002405002405
sg29
F0.0002405002405002405
sg30
F0.0002405002405002405
sg31
F0.0002405002405002405
sg32
F0.0002405002405002405
sg33
F0.0002405002405002405
sg34
F0.0002405002405002405
sg35
F0.0002405002405002405
sg36
F0.0002405002405002405
sg37
F0.0002405002405002405
sg38
F0.0002405002405002405
sg39
F0.0002405002405002405
sg40
F0.0002405002405002405
sg41
F0.0002405002405002405
sg42
F0.0002405002405002405
sg43
F0.0002405002405002405
sg44
F0.0002405002405002405
sg45
F0.0002405002405002405
sg46
F0.0002405002405002405
sg47
F0.0002405002405002405
sg48
F0.0002405002405002405
sg49
F0.0002405002405002405
sg50
F0.0002405002405002405
sg51
F0.0002405002405002405
sg52
F0.0002405002405002405
sg53
F0.0002405002405002405
sg54
F0.0002405002405002405
sg55
F0.0002405002405002405
sg56
F0.0002405002405002405
sg57
F0.0002405002405002405
sg58
F0.0002405002405002405
sg59
F0.0002405002405002405
sg60
F0.0002405002405002405
sg61
F0.000481000481000481
sg62
F0.0002405002405002405
sg63
F0.0002405002405002405
sg64
F0.0002405002405002405
sg65
F0.0002405002405002405
sg66
F0.0002405002405002405
sg67
F0.0002405002405002405
sg68
F0.00962000962000962
sg69
F0.0002405002405002405
sg70
F0.0002405002405002405
sg71
F0.0002405002405002405
sg72
F0.0002405002405002405
sg73
F0.0002405002405002405
ssg16
(dp87
g1
F0.00036443148688046647
sg3
F0.4402332361516035
sg4
F0.00036443148688046647
sg5
F0.015306122448979591
sg6
F0.0014577259475218659
sg7
F0.00036443148688046647
sg8
F0.05102040816326531
sg9
F0.025510204081632654
sg10
F0.025510204081632654
sg11
F0.030612244897959183
sg12
F0.12900874635568513
sg13
F0.029154518950437316
sg14
F0.03571428571428571
sg15
F0.05903790087463557
sg16
F0.03498542274052478
sg17
F0.03206997084548105
sg18
F0.03717201166180758
sg19
F0.02988338192419825
sg20
F0.04227405247813411
sg21
F0.00036443148688046647
sg22
F0.00036443148688046647
sg23
F0.0007288629737609329
sg24
F0.00036443148688046647
sg25
F0.00036443148688046647
sg26
F0.00036443148688046647
sg27
F0.00036443148688046647
sg28
F0.00036443148688046647
sg29
F0.00036443148688046647
sg30
F0.00036443148688046647
sg31
F0.00036443148688046647
sg32
F0.00036443148688046647
sg33
F0.00036443148688046647
sg34
F0.00036443148688046647
sg35
F0.00036443148688046647
sg36
F0.00036443148688046647
sg37
F0.00036443148688046647
sg38
F0.00036443148688046647
sg39
F0.00036443148688046647
sg40
F0.00036443148688046647
sg41
F0.00036443148688046647
sg42
F0.00036443148688046647
sg43
F0.00036443148688046647
sg44
F0.00036443148688046647
sg45
F0.00036443148688046647
sg46
F0.00036443148688046647
sg47
F0.00036443148688046647
sg48
F0.00036443148688046647
sg49
F0.00036443148688046647
sg50
F0.00036443148688046647
sg51
F0.00036443148688046647
sg52
F0.00036443148688046647
sg53
F0.00036443148688046647
sg54
F0.00036443148688046647
sg55
F0.00036443148688046647
sg56
F0.00036443148688046647
sg57
F0.00036443148688046647
sg58
F0.00036443148688046647
sg59
F0.00036443148688046647
sg60
F0.00036443148688046647
sg61
F0.00036443148688046647
sg62
F0.00036443148688046647
sg63
F0.00036443148688046647
sg64
F0.00036443148688046647
sg65
F0.00036443148688046647
sg66
F0.00036443148688046647
sg67
F0.00036443148688046647
sg68
F0.014577259475218658
sg69
F0.00036443148688046647
sg70
F0.00036443148688046647
sg71
F0.00036443148688046647
sg72
F0.00036443148688046647
sg73
F0.00036443148688046647
ssg17
(dp88
g1
F0.00047938638542665386
sg3
F0.42665388302972196
sg4
F0.00047938638542665386
sg5
F0.0019175455417066154
sg6
F0.00047938638542665386
sg7
F0.00047938638542665386
sg8
F0.046021093000958774
sg9
F0.03451581975071908
sg10
F0.02109300095877277
sg11
F0.023969319271332695
sg12
F0.12272291466922339
sg13
F0.01821668264621285
sg14
F0.031639501438159155
sg15
F0.0728667305848514
sg16
F0.026845637583892617
sg17
F0.029721955896452542
sg18
F0.029721955896452542
sg19
F0.029721955896452542
sg20
F0.0364333652924257
sg21
F0.00047938638542665386
sg22
F0.0009587727708533077
sg23
F0.00047938638542665386
sg24
F0.00047938638542665386
sg25
F0.00047938638542665386
sg26
F0.00047938638542665386
sg27
F0.00047938638542665386
sg28
F0.00047938638542665386
sg29
F0.00047938638542665386
sg30
F0.00047938638542665386
sg31
F0.00047938638542665386
sg32
F0.00047938638542665386
sg33
F0.00047938638542665386
sg34
F0.00047938638542665386
sg35
F0.00047938638542665386
sg36
F0.00047938638542665386
sg37
F0.00047938638542665386
sg38
F0.00047938638542665386
sg39
F0.00047938638542665386
sg40
F0.00047938638542665386
sg41
F0.00047938638542665386
sg42
F0.00047938638542665386
sg43
F0.00047938638542665386
sg44
F0.00047938638542665386
sg45
F0.00047938638542665386
sg46
F0.00047938638542665386
sg47
F0.00047938638542665386
sg48
F0.00047938638542665386
sg49
F0.00047938638542665386
sg50
F0.0009587727708533077
sg51
F0.0009587727708533077
sg52
F0.00047938638542665386
sg53
F0.00047938638542665386
sg54
F0.00047938638542665386
sg55
F0.00047938638542665386
sg56
F0.00047938638542665386
sg57
F0.00047938638542665386
sg58
F0.00047938638542665386
sg59
F0.00047938638542665386
sg60
F0.00047938638542665386
sg61
F0.00047938638542665386
sg62
F0.00047938638542665386
sg63
F0.00047938638542665386
sg64
F0.00047938638542665386
sg65
F0.00047938638542665386
sg66
F0.00047938638542665386
sg67
F0.00047938638542665386
sg68
F0.024928092042186004
sg69
F0.00047938638542665386
sg70
F0.00047938638542665386
sg71
F0.00047938638542665386
sg72
F0.00047938638542665386
sg73
F0.00047938638542665386
ssg18
(dp89
g1
F0.00034916201117318437
sg3
F0.3261173184357542
sg4
F0.00034916201117318437
sg5
F0.004189944134078212
sg6
F0.002094972067039106
sg7
F0.0006983240223463687
sg8
F0.03840782122905028
sg9
F0.014664804469273743
sg10
F0.01606145251396648
sg11
F0.12849162011173185
sg12
F0.2430167597765363
sg13
F0.029329608938547486
sg14
F0.04958100558659218
sg15
F0.03910614525139665
sg16
F0.0223463687150838
sg17
F0.013966480446927373
sg18
F0.01606145251396648
sg19
F0.01675977653631285
sg20
F0.018854748603351956
sg21
F0.00034916201117318437
sg22
F0.0006983240223463687
sg23
F0.00034916201117318437
sg24
F0.00034916201117318437
sg25
F0.00034916201117318437
sg26
F0.00034916201117318437
sg27
F0.00034916201117318437
sg28
F0.00034916201117318437
sg29
F0.00034916201117318437
sg30
F0.00034916201117318437
sg31
F0.00034916201117318437
sg32
F0.00034916201117318437
sg33
F0.00034916201117318437
sg34
F0.00034916201117318437
sg35
F0.00034916201117318437
sg36
F0.00034916201117318437
sg37
F0.00034916201117318437
sg38
F0.00034916201117318437
sg39
F0.00034916201117318437
sg40
F0.00034916201117318437
sg41
F0.00034916201117318437
sg42
F0.00034916201117318437
sg43
F0.00034916201117318437
sg44
F0.00034916201117318437
sg45
F0.00034916201117318437
sg46
F0.00034916201117318437
sg47
F0.00034916201117318437
sg48
F0.0006983240223463687
sg49
F0.00034916201117318437
sg50
F0.00034916201117318437
sg51
F0.00034916201117318437
sg52
F0.00034916201117318437
sg53
F0.00034916201117318437
sg54
F0.00034916201117318437
sg55
F0.00034916201117318437
sg56
F0.00034916201117318437
sg57
F0.00034916201117318437
sg58
F0.00034916201117318437
sg59
F0.00034916201117318437
sg60
F0.00034916201117318437
sg61
F0.00034916201117318437
sg62
F0.00034916201117318437
sg63
F0.00034916201117318437
sg64
F0.00034916201117318437
sg65
F0.00034916201117318437
sg66
F0.00034916201117318437
sg67
F0.00034916201117318437
sg68
F0.011871508379888268
sg69
F0.00034916201117318437
sg70
F0.00034916201117318437
sg71
F0.00034916201117318437
sg72
F0.00034916201117318437
sg73
F0.00034916201117318437
ssg19
(dp90
g1
F0.00023452157598499062
sg3
F0.1899624765478424
sg4
F0.00023452157598499062
sg5
F0.00046904315196998124
sg6
F0.00046904315196998124
sg7
F0.00023452157598499062
sg8
F0.013602251407129456
sg9
F0.008911819887429643
sg10
F0.007035647279549718
sg11
F0.04878048780487805
sg12
F0.054878048780487805
sg13
F0.04831144465290807
sg14
F0.06191369606003752
sg15
F0.22936210131332083
sg16
F0.07926829268292683
sg17
F0.010787992495309569
sg18
F0.19136960600375236
sg19
F0.009849906191369606
sg20
F0.012195121951219513
sg21
F0.00023452157598499062
sg22
F0.00023452157598499062
sg23
F0.00023452157598499062
sg24
F0.00023452157598499062
sg25
F0.00023452157598499062
sg26
F0.00023452157598499062
sg27
F0.00023452157598499062
sg28
F0.00023452157598499062
sg29
F0.00023452157598499062
sg30
F0.00023452157598499062
sg31
F0.00023452157598499062
sg32
F0.00023452157598499062
sg33
F0.00023452157598499062
sg34
F0.00023452157598499062
sg35
F0.00023452157598499062
sg36
F0.00046904315196998124
sg37
F0.00023452157598499062
sg38
F0.00023452157598499062
sg39
F0.00023452157598499062
sg40
F0.00023452157598499062
sg41
F0.00023452157598499062
sg42
F0.00023452157598499062
sg43
F0.00023452157598499062
sg44
F0.00023452157598499062
sg45
F0.00023452157598499062
sg46
F0.00023452157598499062
sg47
F0.00023452157598499062
sg48
F0.00046904315196998124
sg49
F0.00023452157598499062
sg50
F0.00046904315196998124
sg51
F0.0009380863039399625
sg52
F0.00023452157598499062
sg53
F0.00023452157598499062
sg54
F0.00023452157598499062
sg55
F0.00023452157598499062
sg56
F0.00023452157598499062
sg57
F0.00023452157598499062
sg58
F0.00023452157598499062
sg59
F0.00023452157598499062
sg60
F0.00023452157598499062
sg61
F0.00023452157598499062
sg62
F0.00023452157598499062
sg63
F0.00023452157598499062
sg64
F0.00023452157598499062
sg65
F0.00023452157598499062
sg66
F0.00023452157598499062
sg67
F0.00023452157598499062
sg68
F0.01125703564727955
sg69
F0.00023452157598499062
sg70
F0.00023452157598499062
sg71
F0.00023452157598499062
sg72
F0.00023452157598499062
sg73
F0.00023452157598499062
ssg20
(dp91
g1
F0.00040096230954290296
sg3
F0.41058540497193263
sg4
F0.00040096230954290296
sg5
F0.00801924619085806
sg6
F0.00040096230954290296
sg7
F0.0024057738572574178
sg8
F0.034482758620689655
sg9
F0.024057738572574178
sg10
F0.011226944667201283
sg11
F0.056134723336006415
sg12
F0.0946271050521251
sg13
F0.03528468323977546
sg14
F0.02967121090617482
sg15
F0.05132317562149158
sg16
F0.03207698476343224
sg17
F0.03929430633520449
sg18
F0.046511627906976744
sg19
F0.04971932638331997
sg20
F0.044105854049719326
sg21
F0.00040096230954290296
sg22
F0.00040096230954290296
sg23
F0.00040096230954290296
sg24
F0.00040096230954290296
sg25
F0.00040096230954290296
sg26
F0.00040096230954290296
sg27
F0.00040096230954290296
sg28
F0.00040096230954290296
sg29
F0.00040096230954290296
sg30
F0.00040096230954290296
sg31
F0.00040096230954290296
sg32
F0.00040096230954290296
sg33
F0.00040096230954290296
sg34
F0.00040096230954290296
sg35
F0.00040096230954290296
sg36
F0.00040096230954290296
sg37
F0.00040096230954290296
sg38
F0.00040096230954290296
sg39
F0.00040096230954290296
sg40
F0.00040096230954290296
sg41
F0.00040096230954290296
sg42
F0.00040096230954290296
sg43
F0.00040096230954290296
sg44
F0.00040096230954290296
sg45
F0.00040096230954290296
sg46
F0.00040096230954290296
sg47
F0.00040096230954290296
sg48
F0.00040096230954290296
sg49
F0.00040096230954290296
sg50
F0.00040096230954290296
sg51
F0.0016038492381716118
sg52
F0.00040096230954290296
sg53
F0.00040096230954290296
sg54
F0.00040096230954290296
sg55
F0.00040096230954290296
sg56
F0.00040096230954290296
sg57
F0.00040096230954290296
sg58
F0.00040096230954290296
sg59
F0.00040096230954290296
sg60
F0.00040096230954290296
sg61
F0.00040096230954290296
sg62
F0.00040096230954290296
sg63
F0.00040096230954290296
sg64
F0.00040096230954290296
sg65
F0.00040096230954290296
sg66
F0.00040096230954290296
sg67
F0.00040096230954290296
sg68
F0.018444266238973536
sg69
F0.00040096230954290296
sg70
F0.00040096230954290296
sg71
F0.00040096230954290296
sg72
F0.00040096230954290296
sg73
F0.00040096230954290296
ssg21
(dp92
g1
F0.00017265193370165745
sg3
F0.9754834254143646
sg4
F0.00017265193370165745
sg5
F0.0003453038674033149
sg6
F0.00017265193370165745
sg7
F0.00017265193370165745
sg8
F0.00017265193370165745
sg9
F0.00017265193370165745
sg10
F0.00017265193370165745
sg11
F0.00017265193370165745
sg12
F0.00017265193370165745
sg13
F0.00017265193370165745
sg14
F0.00017265193370165745
sg15
F0.00017265193370165745
sg16
F0.00017265193370165745
sg17
F0.00017265193370165745
sg18
F0.00017265193370165745
sg19
F0.00017265193370165745
sg20
F0.00017265193370165745
sg21
F0.00017265193370165745
sg22
F0.00017265193370165745
sg23
F0.00017265193370165745
sg24
F0.00017265193370165745
sg25
F0.00017265193370165745
sg26
F0.00017265193370165745
sg27
F0.00017265193370165745
sg28
F0.00017265193370165745
sg29
F0.00017265193370165745
sg30
F0.00017265193370165745
sg31
F0.00017265193370165745
sg32
F0.00017265193370165745
sg33
F0.00017265193370165745
sg34
F0.00017265193370165745
sg35
F0.00017265193370165745
sg36
F0.00017265193370165745
sg37
F0.00017265193370165745
sg38
F0.00017265193370165745
sg39
F0.00017265193370165745
sg40
F0.00017265193370165745
sg41
F0.00017265193370165745
sg42
F0.00017265193370165745
sg43
F0.00017265193370165745
sg44
F0.00017265193370165745
sg45
F0.00017265193370165745
sg46
F0.00017265193370165745
sg47
F0.00017265193370165745
sg48
F0.00017265193370165745
sg49
F0.00017265193370165745
sg50
F0.00017265193370165745
sg51
F0.00017265193370165745
sg52
F0.00017265193370165745
sg53
F0.00017265193370165745
sg54
F0.00017265193370165745
sg55
F0.00017265193370165745
sg56
F0.00017265193370165745
sg57
F0.00017265193370165745
sg58
F0.00017265193370165745
sg59
F0.00017265193370165745
sg60
F0.00017265193370165745
sg61
F0.00017265193370165745
sg62
F0.00017265193370165745
sg63
F0.00017265193370165745
sg64
F0.00017265193370165745
sg65
F0.00017265193370165745
sg66
F0.00017265193370165745
sg67
F0.00017265193370165745
sg68
F0.00017265193370165745
sg69
F0.00017265193370165745
sg70
F0.00017265193370165745
sg71
F0.00017265193370165745
sg72
F0.00017265193370165745
sg73
F0.00017265193370165745
ssg22
(dp93
g1
F8.434547908232118e-05
sg3
F0.2066464237516869
sg4
F8.434547908232118e-05
sg5
F0.0016869095816464238
sg6
F8.434547908232118e-05
sg7
F8.434547908232118e-05
sg8
F0.0006747638326585695
sg9
F8.434547908232118e-05
sg10
F0.03205128205128205
sg11
F0.00016869095816464237
sg12
F8.434547908232118e-05
sg13
F8.434547908232118e-05
sg14
F8.434547908232118e-05
sg15
F0.00016869095816464237
sg16
F8.434547908232118e-05
sg17
F8.434547908232118e-05
sg18
F8.434547908232118e-05
sg19
F8.434547908232118e-05
sg20
F8.434547908232118e-05
sg21
F8.434547908232118e-05
sg22
F0.0020242914979757085
sg23
F0.0025303643724696357
sg24
F0.0016869095816464238
sg25
F0.003036437246963563
sg26
F0.001855600539811066
sg27
F8.434547908232118e-05
sg28
F0.0010121457489878543
sg29
F0.004723346828609987
sg30
F0.0011808367071524967
sg31
F0.00016869095816464237
sg32
F8.434547908232118e-05
sg33
F0.0043859649122807015
sg34
F0.00033738191632928474
sg35
F0.00033738191632928474
sg36
F0.00033738191632928474
sg37
F8.434547908232118e-05
sg38
F0.0023616734143049934
sg39
F0.0028677462887989206
sg40
F0.0010121457489878543
sg41
F8.434547908232118e-05
sg42
F0.005566801619433198
sg43
F0.0008434547908232119
sg44
F0.00016869095816464237
sg45
F8.434547908232118e-05
sg46
F8.434547908232118e-05
sg47
F8.434547908232118e-05
sg48
F0.0008434547908232119
sg49
F0.048582995951417005
sg50
F0.021929824561403508
sg51
F0.004723346828609987
sg52
F0.05684885290148448
sg53
F0.023110661268556005
sg54
F0.22233468286099864
sg55
F0.014844804318488529
sg56
F0.0021929824561403508
sg57
F0.00016869095816464237
sg58
F0.019736842105263157
sg59
F0.1703778677462888
sg60
F0.14861673414304993
sg61
F0.00016869095816464237
sg62
F0.23836032388663966
sg63
F0.0005060728744939271
sg64
F0.030195681511470986
sg65
F0.127361673414305
sg66
F0.09649122807017543
sg67
F0.03829284750337382
sg68
F0.09159919028340081
sg69
F0.0021929824561403508
sg70
F0.01417004048582996
sg71
F0.0006747638326585695
sg72
F0.0008434547908232119
sg73
F0.0006747638326585695
ssg23
(dp94
g1
F8.13140348024069e-05
sg3
F0.035452919173849406
sg4
F8.13140348024069e-05
sg5
F0.0019515368352577655
sg6
F8.13140348024069e-05
sg7
F8.13140348024069e-05
sg8
F0.0016262806960481379
sg9
F8.13140348024069e-05
sg10
F0.02911042445926167
sg11
F8.13140348024069e-05
sg12
F8.13140348024069e-05
sg13
F8.13140348024069e-05
sg14
F8.13140348024069e-05
sg15
F8.13140348024069e-05
sg16
F8.13140348024069e-05
sg17
F8.13140348024069e-05
sg18
F8.13140348024069e-05
sg19
F8.13140348024069e-05
sg20
F8.13140348024069e-05
sg21
F8.13140348024069e-05
sg22
F0.002439421044072207
sg23
F0.0001626280696048138
sg24
F0.0013010245568385104
sg25
F8.13140348024069e-05
sg26
F0.002602049113677021
sg27
F8.13140348024069e-05
sg28
F8.13140348024069e-05
sg29
F0.0008131403480240689
sg30
F0.0003252561392096276
sg31
F8.13140348024069e-05
sg32
F0.0001626280696048138
sg33
F8.13140348024069e-05
sg34
F0.0001626280696048138
sg35
F0.0019515368352577655
sg36
F8.13140348024069e-05
sg37
F8.13140348024069e-05
sg38
F8.13140348024069e-05
sg39
F0.0027646771832818343
sg40
F0.0003252561392096276
sg41
F0.0003252561392096276
sg42
F0.002602049113677021
sg43
F8.13140348024069e-05
sg44
F0.0001626280696048138
sg45
F8.13140348024069e-05
sg46
F8.13140348024069e-05
sg47
F8.13140348024069e-05
sg48
F0.172060497641893
sg49
F8.13140348024069e-05
sg50
F8.13140348024069e-05
sg51
F0.03707919986989754
sg52
F8.13140348024069e-05
sg53
F8.13140348024069e-05
sg54
F0.0001626280696048138
sg55
F0.04000650512278419
sg56
F0.22084891852333713
sg57
F8.13140348024069e-05
sg58
F8.13140348024069e-05
sg59
F0.0001626280696048138
sg60
F0.06196129451943405
sg61
F0.4373068791673443
sg62
F8.13140348024069e-05
sg63
F8.13140348024069e-05
sg64
F8.13140348024069e-05
sg65
F0.0003252561392096276
sg66
F0.03317612619938201
sg67
F0.033501382338591644
sg68
F0.0001626280696048138
sg69
F8.13140348024069e-05
sg70
F8.13140348024069e-05
sg71
F0.0032525613920962758
sg72
F8.13140348024069e-05
sg73
F0.0019515368352577655
ssg24
(dp95
g1
F0.00013842746400885935
sg3
F0.03239202657807309
sg4
F0.00013842746400885935
sg5
F0.0005537098560354374
sg6
F0.00013842746400885935
sg7
F0.00013842746400885935
sg8
F0.005813953488372093
sg9
F0.00013842746400885935
sg10
F0.032668881506090805
sg11
F0.00013842746400885935
sg12
F0.00013842746400885935
sg13
F0.00013842746400885935
sg14
F0.00013842746400885935
sg15
F0.00013842746400885935
sg16
F0.00013842746400885935
sg17
F0.0002768549280177187
sg18
F0.00013842746400885935
sg19
F0.00013842746400885935
sg20
F0.00013842746400885935
sg21
F0.00013842746400885935
sg22
F0.009966777408637873
sg23
F0.0022148394241417496
sg24
F0.0016611295681063123
sg25
F0.0002768549280177187
sg26
F0.00013842746400885935
sg27
F0.0008305647840531562
sg28
F0.00013842746400885935
sg29
F0.0022148394241417496
sg30
F0.00013842746400885935
sg31
F0.00013842746400885935
sg32
F0.00013842746400885935
sg33
F0.005260243632336656
sg34
F0.00013842746400885935
sg35
F0.007751937984496124
sg36
F0.00013842746400885935
sg37
F0.00013842746400885935
sg38
F0.00013842746400885935
sg39
F0.003875968992248062
sg40
F0.00013842746400885935
sg41
F0.00013842746400885935
sg42
F0.001937984496124031
sg43
F0.0013842746400885937
sg44
F0.00013842746400885935
sg45
F0.00013842746400885935
sg46
F0.00013842746400885935
sg47
F0.00013842746400885935
sg48
F0.18964562569213733
sg49
F0.00013842746400885935
sg50
F0.00013842746400885935
sg51
F0.2397563676633444
sg52
F0.00013842746400885935
sg53
F0.00013842746400885935
sg54
F0.00013842746400885935
sg55
F0.07779623477297896
sg56
F0.00013842746400885935
sg57
F0.00013842746400885935
sg58
F0.0002768549280177187
sg59
F0.00013842746400885935
sg60
F0.054817275747508304
sg61
F0.16971207087486156
sg62
F0.00013842746400885935
sg63
F0.00013842746400885935
sg64
F0.00013842746400885935
sg65
F0.00013842746400885935
sg66
F0.21400885935769656
sg67
F0.3754152823920266
sg68
F0.00013842746400885935
sg69
F0.00013842746400885935
sg70
F0.00013842746400885935
sg71
F0.06173864894795127
sg72
F0.00013842746400885935
sg73
F0.00013842746400885935
ssg25
(dp96
g1
F0.00024330900243309004
sg3
F0.031143552311435525
sg4
F0.00024330900243309004
sg5
F0.00024330900243309004
sg6
F0.00024330900243309004
sg7
F0.00024330900243309004
sg8
F0.00535279805352798
sg9
F0.00048661800486618007
sg10
F0.046228710462287104
sg11
F0.00024330900243309004
sg12
F0.00024330900243309004
sg13
F0.00024330900243309004
sg14
F0.00024330900243309004
sg15
F0.00024330900243309004
sg16
F0.00024330900243309004
sg17
F0.00024330900243309004
sg18
F0.00024330900243309004
sg19
F0.00024330900243309004
sg20
F0.00024330900243309004
sg21
F0.00024330900243309004
sg22
F0.01167883211678832
sg23
F0.0019464720194647203
sg24
F0.0024330900243309003
sg25
F0.0019464720194647203
sg26
F0.00145985401459854
sg27
F0.0009732360097323601
sg28
F0.00024330900243309004
sg29
F0.00024330900243309004
sg30
F0.00024330900243309004
sg31
F0.00024330900243309004
sg32
F0.00024330900243309004
sg33
F0.0009732360097323601
sg34
F0.004379562043795621
sg35
F0.00024330900243309004
sg36
F0.00024330900243309004
sg37
F0.0024330900243309003
sg38
F0.00048661800486618007
sg39
F0.0038929440389294406
sg40
F0.0009732360097323601
sg41
F0.00048661800486618007
sg42
F0.00145985401459854
sg43
F0.0019464720194647203
sg44
F0.00024330900243309004
sg45
F0.00024330900243309004
sg46
F0.00024330900243309004
sg47
F0.00024330900243309004
sg48
F0.18491484184914841
sg49
F0.020437956204379562
sg50
F0.00145985401459854
sg51
F0.00024330900243309004
sg52
F0.07834549878345498
sg53
F0.012652068126520682
sg54
F0.0034063260340632603
sg55
F0.07591240875912408
sg56
F0.00145985401459854
sg57
F0.00145985401459854
sg58
F0.00048661800486618007
sg59
F0.05596107055961071
sg60
F0.10121654501216545
sg61
F0.00024330900243309004
sg62
F0.21605839416058395
sg63
F0.010218978102189781
sg64
F0.012165450121654502
sg65
F0.031630170316301706
sg66
F0.029683698296836983
sg67
F0.10559610705596106
sg68
F0.012165450121654502
sg69
F0.0009732360097323601
sg70
F0.14744525547445256
sg71
F0.0009732360097323601
sg72
F0.09294403892944039
sg73
F0.0009732360097323601
ssg26
(dp97
g1
F0.00018031013342949875
sg3
F0.032095203750450774
sg4
F0.00018031013342949875
sg5
F0.006851785070320952
sg6
F0.00018031013342949875
sg7
F0.00018031013342949875
sg8
F0.00018031013342949875
sg9
F0.00018031013342949875
sg10
F0.0429138117562207
sg11
F0.00018031013342949875
sg12
F0.000721240533717995
sg13
F0.00018031013342949875
sg14
F0.00018031013342949875
sg15
F0.00018031013342949875
sg16
F0.00018031013342949875
sg17
F0.00018031013342949875
sg18
F0.00018031013342949875
sg19
F0.00018031013342949875
sg20
F0.0003606202668589975
sg21
F0.00018031013342949875
sg22
F0.00432744320230797
sg23
F0.008294266137756943
sg24
F0.00018031013342949875
sg25
F0.005409304002884962
sg26
F0.00018031013342949875
sg27
F0.00018031013342949875
sg28
F0.00018031013342949875
sg29
F0.0032455824017309774
sg30
F0.00018031013342949875
sg31
F0.00018031013342949875
sg32
F0.00018031013342949875
sg33
F0.0003606202668589975
sg34
F0.0010818608005769925
sg35
F0.00018031013342949875
sg36
F0.00018031013342949875
sg37
F0.00018031013342949875
sg38
F0.0003606202668589975
sg39
F0.0010818608005769925
sg40
F0.0018031013342949874
sg41
F0.002163721601153985
sg42
F0.00144248106743599
sg43
F0.0032455824017309774
sg44
F0.00018031013342949875
sg45
F0.00018031013342949875
sg46
F0.00018031013342949875
sg47
F0.00018031013342949875
sg48
F0.17850703209520374
sg49
F0.00018031013342949875
sg50
F0.00018031013342949875
sg51
F0.37793003966822936
sg52
F0.00018031013342949875
sg53
F0.00018031013342949875
sg54
F0.00018031013342949875
sg55
F0.16408222142084386
sg56
F0.00018031013342949875
sg57
F0.00018031013342949875
sg58
F0.00288496213487198
sg59
F0.00018031013342949875
sg60
F0.00018031013342949875
sg61
F0.1554273350162279
sg62
F0.0003606202668589975
sg63
F0.00018031013342949875
sg64
F0.00018031013342949875
sg65
F0.00018031013342949875
sg66
F0.12225027046520015
sg67
F0.1150378651280202
sg68
F0.00018031013342949875
sg69
F0.007933645870897944
sg70
F0.0003606202668589975
sg71
F0.00865488640461594
sg72
F0.00018031013342949875
sg73
F0.00018031013342949875
ssg27
(dp98
g1
F0.00019083969465648855
sg3
F0.007633587786259542
sg4
F0.00019083969465648855
sg5
F0.0003816793893129771
sg6
F0.00019083969465648855
sg7
F0.00019083969465648855
sg8
F0.00019083969465648855
sg9
F0.00019083969465648855
sg10
F0.0183206106870229
sg11
F0.00019083969465648855
sg12
F0.00019083969465648855
sg13
F0.00019083969465648855
sg14
F0.00019083969465648855
sg15
F0.00019083969465648855
sg16
F0.00019083969465648855
sg17
F0.00019083969465648855
sg18
F0.00019083969465648855
sg19
F0.00019083969465648855
sg20
F0.00019083969465648855
sg21
F0.00019083969465648855
sg22
F0.0007633587786259542
sg23
F0.00019083969465648855
sg24
F0.00019083969465648855
sg25
F0.0007633587786259542
sg26
F0.00019083969465648855
sg27
F0.00019083969465648855
sg28
F0.0003816793893129771
sg29
F0.0007633587786259542
sg30
F0.00019083969465648855
sg31
F0.00019083969465648855
sg32
F0.00019083969465648855
sg33
F0.0003816793893129771
sg34
F0.00019083969465648855
sg35
F0.004961832061068702
sg36
F0.0022900763358778627
sg37
F0.00019083969465648855
sg38
F0.00019083969465648855
sg39
F0.0003816793893129771
sg40
F0.00019083969465648855
sg41
F0.00019083969465648855
sg42
F0.00019083969465648855
sg43
F0.00019083969465648855
sg44
F0.00019083969465648855
sg45
F0.00019083969465648855
sg46
F0.00019083969465648855
sg47
F0.00019083969465648855
sg48
F0.11145038167938931
sg49
F0.00019083969465648855
sg50
F0.00019083969465648855
sg51
F0.2870229007633588
sg52
F0.00019083969465648855
sg53
F0.00019083969465648855
sg54
F0.00019083969465648855
sg55
F0.06603053435114503
sg56
F0.0057251908396946565
sg57
F0.00019083969465648855
sg58
F0.00019083969465648855
sg59
F0.00019083969465648855
sg60
F0.030534351145038167
sg61
F0.30229007633587784
sg62
F0.00019083969465648855
sg63
F0.00019083969465648855
sg64
F0.00019083969465648855
sg65
F0.00019083969465648855
sg66
F0.21946564885496184
sg67
F0.052290076335877865
sg68
F0.00019083969465648855
sg69
F0.00019083969465648855
sg70
F0.00019083969465648855
sg71
F0.0015267175572519084
sg72
F0.00019083969465648855
sg73
F0.00019083969465648855
ssg28
(dp99
g1
F0.0001968503937007874
sg3
F0.024015748031496063
sg4
F0.0001968503937007874
sg5
F0.0001968503937007874
sg6
F0.0001968503937007874
sg7
F0.0001968503937007874
sg8
F0.0007874015748031496
sg9
F0.0001968503937007874
sg10
F0.029921259842519685
sg11
F0.0001968503937007874
sg12
F0.0001968503937007874
sg13
F0.0001968503937007874
sg14
F0.0001968503937007874
sg15
F0.0001968503937007874
sg16
F0.0001968503937007874
sg17
F0.0001968503937007874
sg18
F0.0001968503937007874
sg19
F0.0001968503937007874
sg20
F0.0001968503937007874
sg21
F0.0001968503937007874
sg22
F0.0003937007874015748
sg23
F0.0003937007874015748
sg24
F0.0031496062992125984
sg25
F0.0007874015748031496
sg26
F0.001968503937007874
sg27
F0.0001968503937007874
sg28
F0.0003937007874015748
sg29
F0.0011811023622047244
sg30
F0.0011811023622047244
sg31
F0.0001968503937007874
sg32
F0.0001968503937007874
sg33
F0.0007874015748031496
sg34
F0.002362204724409449
sg35
F0.0003937007874015748
sg36
F0.0007874015748031496
sg37
F0.0001968503937007874
sg38
F0.0001968503937007874
sg39
F0.0001968503937007874
sg40
F0.0001968503937007874
sg41
F0.0001968503937007874
sg42
F0.0001968503937007874
sg43
F0.0001968503937007874
sg44
F0.0001968503937007874
sg45
F0.0001968503937007874
sg46
F0.0001968503937007874
sg47
F0.0001968503937007874
sg48
F0.12992125984251968
sg49
F0.0001968503937007874
sg50
F0.0001968503937007874
sg51
F0.1547244094488189
sg52
F0.0001968503937007874
sg53
F0.0001968503937007874
sg54
F0.0003937007874015748
sg55
F0.23228346456692914
sg56
F0.0001968503937007874
sg57
F0.0001968503937007874
sg58
F0.0001968503937007874
sg59
F0.0001968503937007874
sg60
F0.0610236220472441
sg61
F0.42874015748031497
sg62
F0.0001968503937007874
sg63
F0.0001968503937007874
sg64
F0.0001968503937007874
sg65
F0.0001968503937007874
sg66
F0.33307086614173226
sg67
F0.06929133858267716
sg68
F0.0001968503937007874
sg69
F0.0001968503937007874
sg70
F0.0001968503937007874
sg71
F0.0003937007874015748
sg72
F0.0001968503937007874
sg73
F0.0001968503937007874
ssg29
(dp100
g1
F0.0001268713524486171
sg3
F0.7528546054300939
sg4
F0.0001268713524486171
sg5
F0.06343567622430855
sg6
F0.0001268713524486171
sg7
F0.0001268713524486171
sg8
F0.0005074854097944684
sg9
F0.0001268713524486171
sg10
F0.008880994671403197
sg11
F0.0001268713524486171
sg12
F0.0001268713524486171
sg13
F0.0001268713524486171
sg14
F0.0001268713524486171
sg15
F0.0001268713524486171
sg16
F0.0001268713524486171
sg17
F0.0001268713524486171
sg18
F0.0001268713524486171
sg19
F0.0001268713524486171
sg20
F0.0001268713524486171
sg21
F0.0001268713524486171
sg22
F0.002537427048972342
sg23
F0.0030449124587668104
sg24
F0.0020299416391778738
sg25
F0.0002537427048972342
sg26
F0.0015224562293834052
sg27
F0.0005074854097944684
sg28
F0.0001268713524486171
sg29
F0.0001268713524486171
sg30
F0.0002537427048972342
sg31
F0.0001268713524486171
sg32
F0.0002537427048972342
sg33
F0.001268713524486171
sg34
F0.0001268713524486171
sg35
F0.005074854097944684
sg36
F0.0015224562293834052
sg37
F0.0001268713524486171
sg38
F0.0001268713524486171
sg39
F0.0005074854097944684
sg40
F0.0017761989342806395
sg41
F0.0002537427048972342
sg42
F0.001268713524486171
sg43
F0.0001268713524486171
sg44
F0.0001268713524486171
sg45
F0.0001268713524486171
sg46
F0.0015224562293834052
sg47
F0.0001268713524486171
sg48
F0.0001268713524486171
sg49
F0.001268713524486171
sg50
F0.0017761989342806395
sg51
F0.0007612281146917026
sg52
F0.006089824917533621
sg53
F0.002791169753869576
sg54
F0.1542755645775184
sg55
F0.0001268713524486171
sg56
F0.0002537427048972342
sg57
F0.0015224562293834052
sg58
F0.0001268713524486171
sg59
F0.01750824663790916
sg60
F0.022583100735853845
sg61
F0.003552397868561279
sg62
F0.6242070540471961
sg63
F0.0001268713524486171
sg64
F0.0001268713524486171
sg65
F0.08145140827201218
sg66
F0.02486678507992895
sg67
F0.0001268713524486171
sg68
F0.47297640192844453
sg69
F0.0001268713524486171
sg70
F0.0032986551636640447
sg71
F0.0001268713524486171
sg72
F0.0001268713524486171
sg73
F0.0017761989342806395
ssg30
(dp101
g1
F0.00017076502732240437
sg3
F0.02151639344262295
sg4
F0.00017076502732240437
sg5
F0.00034153005464480874
sg6
F0.00017076502732240437
sg7
F0.00017076502732240437
sg8
F0.00034153005464480874
sg9
F0.00017076502732240437
sg10
F0.029030054644808744
sg11
F0.00017076502732240437
sg12
F0.00017076502732240437
sg13
F0.00017076502732240437
sg14
F0.00017076502732240437
sg15
F0.00017076502732240437
sg16
F0.00017076502732240437
sg17
F0.00017076502732240437
sg18
F0.00034153005464480874
sg19
F0.00017076502732240437
sg20
F0.00017076502732240437
sg21
F0.00017076502732240437
sg22
F0.0010245901639344263
sg23
F0.00034153005464480874
sg24
F0.0006830601092896175
sg25
F0.00017076502732240437
sg26
F0.00017076502732240437
sg27
F0.00017076502732240437
sg28
F0.00017076502732240437
sg29
F0.00034153005464480874
sg30
F0.00017076502732240437
sg31
F0.00017076502732240437
sg32
F0.00017076502732240437
sg33
F0.00017076502732240437
sg34
F0.00017076502732240437
sg35
F0.00017076502732240437
sg36
F0.00017076502732240437
sg37
F0.00017076502732240437
sg38
F0.00017076502732240437
sg39
F0.0010245901639344263
sg40
F0.0017076502732240437
sg41
F0.00017076502732240437
sg42
F0.00017076502732240437
sg43
F0.00017076502732240437
sg44
F0.00017076502732240437
sg45
F0.00017076502732240437
sg46
F0.00017076502732240437
sg47
F0.00017076502732240437
sg48
F0.33299180327868855
sg49
F0.00017076502732240437
sg50
F0.00017076502732240437
sg51
F0.9060792349726776
sg52
F0.00017076502732240437
sg53
F0.00017076502732240437
sg54
F0.00017076502732240437
sg55
F0.23736338797814208
sg56
F0.00017076502732240437
sg57
F0.00017076502732240437
sg58
F0.00017076502732240437
sg59
F0.00034153005464480874
sg60
F0.00017076502732240437
sg61
F0.3698770491803279
sg62
F0.00017076502732240437
sg63
F0.00017076502732240437
sg64
F0.00017076502732240437
sg65
F0.00017076502732240437
sg66
F0.0006830601092896175
sg67
F0.08367486338797814
sg68
F0.00017076502732240437
sg69
F0.0017076502732240437
sg70
F0.00017076502732240437
sg71
F0.007855191256830601
sg72
F0.00017076502732240437
sg73
F0.00017076502732240437
ssg31
(dp102
g1
F0.0004051863857374392
sg3
F0.012965964343598054
sg4
F0.0004051863857374392
sg5
F0.0024311183144246355
sg6
F0.0004051863857374392
sg7
F0.0004051863857374392
sg8
F0.0004051863857374392
sg9
F0.0004051863857374392
sg10
F0.024311183144246355
sg11
F0.0004051863857374392
sg12
F0.0004051863857374392
sg13
F0.0004051863857374392
sg14
F0.0004051863857374392
sg15
F0.0004051863857374392
sg16
F0.0004051863857374392
sg17
F0.0004051863857374392
sg18
F0.0004051863857374392
sg19
F0.0004051863857374392
sg20
F0.0004051863857374392
sg21
F0.0004051863857374392
sg22
F0.0016207455429497568
sg23
F0.004862236628849271
sg24
F0.0004051863857374392
sg25
F0.0004051863857374392
sg26
F0.0004051863857374392
sg27
F0.0004051863857374392
sg28
F0.0004051863857374392
sg29
F0.0004051863857374392
sg30
F0.0004051863857374392
sg31
F0.0016207455429497568
sg32
F0.0004051863857374392
sg33
F0.0004051863857374392
sg34
F0.0004051863857374392
sg35
F0.0008103727714748784
sg36
F0.0004051863857374392
sg37
F0.0008103727714748784
sg38
F0.0004051863857374392
sg39
F0.0008103727714748784
sg40
F0.0004051863857374392
sg41
F0.0004051863857374392
sg42
F0.0004051863857374392
sg43
F0.0004051863857374392
sg44
F0.0008103727714748784
sg45
F0.0004051863857374392
sg46
F0.0004051863857374392
sg47
F0.0004051863857374392
sg48
F0.22204213938411668
sg49
F0.0004051863857374392
sg50
F0.0004051863857374392
sg51
F0.29497568881685576
sg52
F0.0004051863857374392
sg53
F0.0004051863857374392
sg54
F0.0004051863857374392
sg55
F0.15721231766612642
sg56
F0.07293354943273905
sg57
F0.0004051863857374392
sg58
F0.0004051863857374392
sg59
F0.0004051863857374392
sg60
F0.01539708265802269
sg61
F0.1126418152350081
sg62
F0.041329011345218804
sg63
F0.0004051863857374392
sg64
F0.0004051863857374392
sg65
F0.0004051863857374392
sg66
F0.059967585089141004
sg67
F0.013776337115072933
sg68
F0.0004051863857374392
sg69
F0.0016207455429497568
sg70
F0.0004051863857374392
sg71
F0.01053484602917342
sg72
F0.0004051863857374392
sg73
F0.0004051863857374392
ssg32
(dp103
g1
F0.0002199736031676199
sg3
F0.0030796304443466782
sg4
F0.0002199736031676199
sg5
F0.0002199736031676199
sg6
F0.0002199736031676199
sg7
F0.0002199736031676199
sg8
F0.0002199736031676199
sg9
F0.0002199736031676199
sg10
F0.05499340079190497
sg11
F0.0002199736031676199
sg12
F0.0002199736031676199
sg13
F0.0002199736031676199
sg14
F0.0002199736031676199
sg15
F0.0002199736031676199
sg16
F0.0002199736031676199
sg17
F0.0002199736031676199
sg18
F0.0002199736031676199
sg19
F0.0002199736031676199
sg20
F0.0002199736031676199
sg21
F0.0002199736031676199
sg22
F0.0008798944126704796
sg23
F0.0002199736031676199
sg24
F0.0002199736031676199
sg25
F0.0004399472063352398
sg26
F0.0002199736031676199
sg27
F0.0002199736031676199
sg28
F0.0002199736031676199
sg29
F0.0002199736031676199
sg30
F0.0002199736031676199
sg31
F0.0002199736031676199
sg32
F0.0002199736031676199
sg33
F0.0002199736031676199
sg34
F0.0002199736031676199
sg35
F0.0002199736031676199
sg36
F0.0004399472063352398
sg37
F0.0002199736031676199
sg38
F0.0002199736031676199
sg39
F0.0004399472063352398
sg40
F0.0002199736031676199
sg41
F0.0002199736031676199
sg42
F0.0002199736031676199
sg43
F0.0002199736031676199
sg44
F0.0002199736031676199
sg45
F0.0008798944126704796
sg46
F0.0002199736031676199
sg47
F0.0002199736031676199
sg48
F0.21557413110426749
sg49
F0.0002199736031676199
sg50
F0.0002199736031676199
sg51
F0.2111746590409151
sg52
F0.0002199736031676199
sg53
F0.0002199736031676199
sg54
F0.0002199736031676199
sg55
F0.01759788825340959
sg56
F0.0002199736031676199
sg57
F0.0002199736031676199
sg58
F0.0002199736031676199
sg59
F0.0002199736031676199
sg60
F0.0002199736031676199
sg61
F0.31808183018037833
sg62
F0.0002199736031676199
sg63
F0.0002199736031676199
sg64
F0.0002199736031676199
sg65
F0.0002199736031676199
sg66
F0.03343598768147822
sg67
F0.22217333919929608
sg68
F0.0002199736031676199
sg69
F0.0002199736031676199
sg70
F0.0002199736031676199
sg71
F0.0002199736031676199
sg72
F0.0002199736031676199
sg73
F0.0002199736031676199
ssg33
(dp104
g1
F0.00010434056761268782
sg3
F0.011060100166944907
sg4
F0.00010434056761268782
sg5
F0.00041736227045075126
sg6
F0.00010434056761268782
sg7
F0.00010434056761268782
sg8
F0.0008347245409015025
sg9
F0.00010434056761268782
sg10
F0.023580968280467445
sg11
F0.00010434056761268782
sg12
F0.00010434056761268782
sg13
F0.00010434056761268782
sg14
F0.00010434056761268782
sg15
F0.00010434056761268782
sg16
F0.00010434056761268782
sg17
F0.00010434056761268782
sg18
F0.00010434056761268782
sg19
F0.00010434056761268782
sg20
F0.00010434056761268782
sg21
F0.00010434056761268782
sg22
F0.00020868113522537563
sg23
F0.00020868113522537563
sg24
F0.00010434056761268782
sg25
F0.0012520868113522537
sg26
F0.00010434056761268782
sg27
F0.00020868113522537563
sg28
F0.00020868113522537563
sg29
F0.0018781302170283807
sg30
F0.00010434056761268782
sg31
F0.00010434056761268782
sg32
F0.00010434056761268782
sg33
F0.00041736227045075126
sg34
F0.00020868113522537563
sg35
F0.0018781302170283807
sg36
F0.00010434056761268782
sg37
F0.00010434056761268782
sg38
F0.0006260434056761269
sg39
F0.00041736227045075126
sg40
F0.00041736227045075126
sg41
F0.0014607679465776294
sg42
F0.00020868113522537563
sg43
F0.00010434056761268782
sg44
F0.00020868113522537563
sg45
F0.00010434056761268782
sg46
F0.00010434056761268782
sg47
F0.00010434056761268782
sg48
F0.3806343906510851
sg49
F0.027545909849749584
sg50
F0.00010434056761268782
sg51
F0.12374791318864775
sg52
F0.001043405676126878
sg53
F0.00010434056761268782
sg54
F0.00020868113522537563
sg55
F0.17591819699499164
sg56
F0.00010434056761268782
sg57
F0.00010434056761268782
sg58
F0.00010434056761268782
sg59
F0.001669449081803005
sg60
F0.00010434056761268782
sg61
F0.20575959933222038
sg62
F0.00010434056761268782
sg63
F0.00010434056761268782
sg64
F0.00010434056761268782
sg65
F0.0006260434056761269
sg66
F0.24436560934891485
sg67
F0.045492487479131885
sg68
F0.0008347245409015025
sg69
F0.00010434056761268782
sg70
F0.00010434056761268782
sg71
F0.0248330550918197
sg72
F0.00010434056761268782
sg73
F0.00010434056761268782
ssg34
(dp105
g1
F0.00022522522522522523
sg3
F0.008558558558558558
sg4
F0.00022522522522522523
sg5
F0.0036036036036036037
sg6
F0.00022522522522522523
sg7
F0.00022522522522522523
sg8
F0.003153153153153153
sg9
F0.00022522522522522523
sg10
F0.032432432432432434
sg11
F0.00022522522522522523
sg12
F0.00022522522522522523
sg13
F0.00022522522522522523
sg14
F0.00022522522522522523
sg15
F0.00022522522522522523
sg16
F0.00022522522522522523
sg17
F0.00022522522522522523
sg18
F0.00022522522522522523
sg19
F0.00022522522522522523
sg20
F0.00022522522522522523
sg21
F0.00022522522522522523
sg22
F0.0013513513513513514
sg23
F0.00022522522522522523
sg24
F0.00022522522522522523
sg25
F0.0018018018018018018
sg26
F0.002702702702702703
sg27
F0.00022522522522522523
sg28
F0.00022522522522522523
sg29
F0.003153153153153153
sg30
F0.00045045045045045046
sg31
F0.00022522522522522523
sg32
F0.00022522522522522523
sg33
F0.00045045045045045046
sg34
F0.00022522522522522523
sg35
F0.0009009009009009009
sg36
F0.00045045045045045046
sg37
F0.00022522522522522523
sg38
F0.00045045045045045046
sg39
F0.0018018018018018018
sg40
F0.0022522522522522522
sg41
F0.00022522522522522523
sg42
F0.00022522522522522523
sg43
F0.00022522522522522523
sg44
F0.00022522522522522523
sg45
F0.00022522522522522523
sg46
F0.00022522522522522523
sg47
F0.00022522522522522523
sg48
F0.3193693693693694
sg49
F0.00022522522522522523
sg50
F0.00022522522522522523
sg51
F0.23648648648648649
sg52
F0.00022522522522522523
sg53
F0.00022522522522522523
sg54
F0.00022522522522522523
sg55
F0.22027027027027027
sg56
F0.00022522522522522523
sg57
F0.00022522522522522523
sg58
F0.00022522522522522523
sg59
F0.00022522522522522523
sg60
F0.005855855855855856
sg61
F0.2828828828828829
sg62
F0.00022522522522522523
sg63
F0.00022522522522522523
sg64
F0.00022522522522522523
sg65
F0.00022522522522522523
sg66
F0.00022522522522522523
sg67
F0.07837837837837838
sg68
F0.004954954954954955
sg69
F0.00022522522522522523
sg70
F0.00022522522522522523
sg71
F0.013513513513513514
sg72
F0.00022522522522522523
sg73
F0.00022522522522522523
ssg35
(dp106
g1
F0.00035561877667140827
sg3
F0.0561877667140825
sg4
F0.00035561877667140827
sg5
F0.04267425320056899
sg6
F0.00035561877667140827
sg7
F0.00035561877667140827
sg8
F0.0021337126600284497
sg9
F0.00035561877667140827
sg10
F0.02844950213371266
sg11
F0.00035561877667140827
sg12
F0.00035561877667140827
sg13
F0.00035561877667140827
sg14
F0.00035561877667140827
sg15
F0.00035561877667140827
sg16
F0.00035561877667140827
sg17
F0.00035561877667140827
sg18
F0.00035561877667140827
sg19
F0.00035561877667140827
sg20
F0.00035561877667140827
sg21
F0.00035561877667140827
sg22
F0.005689900426742532
sg23
F0.015647226173541962
sg24
F0.0007112375533428165
sg25
F0.0007112375533428165
sg26
F0.016358463726884778
sg27
F0.00035561877667140827
sg28
F0.00035561877667140827
sg29
F0.00035561877667140827
sg30
F0.002844950213371266
sg31
F0.0021337126600284497
sg32
F0.00035561877667140827
sg33
F0.0021337126600284497
sg34
F0.0021337126600284497
sg35
F0.0007112375533428165
sg36
F0.001422475106685633
sg37
F0.00035561877667140827
sg38
F0.00995732574679943
sg39
F0.002844950213371266
sg40
F0.002844950213371266
sg41
F0.00035561877667140827
sg42
F0.0007112375533428165
sg43
F0.001422475106685633
sg44
F0.0007112375533428165
sg45
F0.00035561877667140827
sg46
F0.00035561877667140827
sg47
F0.00035561877667140827
sg48
F0.012802275960170697
sg49
F0.08392603129445235
sg50
F0.033428165007112376
sg51
F0.029871977240398292
sg52
F0.016358463726884778
sg53
F0.002844950213371266
sg54
F0.27524893314367
sg55
F0.007823613086770981
sg56
F0.05689900426742532
sg57
F0.015647226173541962
sg58
F0.00035561877667140827
sg59
F0.004978662873399715
sg60
F0.08463726884779517
sg61
F0.0007112375533428165
sg62
F0.5981507823613087
sg63
F0.00035561877667140827
sg64
F0.05405405405405406
sg65
F0.01849217638691323
sg66
F0.20554765291607396
sg67
F0.12019914651493599
sg68
F0.09388335704125178
sg69
F0.007112375533428165
sg70
F0.032716927453769556
sg71
F0.0007112375533428165
sg72
F0.014935988620199146
sg73
F0.001422475106685633
ssg36
(dp107
g1
F0.00021486892995272884
sg3
F0.021057155135367427
sg4
F0.00021486892995272884
sg5
F0.002578427159432746
sg6
F0.00021486892995272884
sg7
F0.00021486892995272884
sg8
F0.00021486892995272884
sg9
F0.00021486892995272884
sg10
F0.052857756768371296
sg11
F0.00021486892995272884
sg12
F0.00021486892995272884
sg13
F0.00021486892995272884
sg14
F0.00021486892995272884
sg15
F0.00021486892995272884
sg16
F0.00021486892995272884
sg17
F0.00021486892995272884
sg18
F0.00021486892995272884
sg19
F0.00021486892995272884
sg20
F0.00021486892995272884
sg21
F0.00021486892995272884
sg22
F0.015470562956596476
sg23
F0.0017189514396218307
sg24
F0.004297378599054577
sg25
F0.004297378599054577
sg26
F0.0008594757198109154
sg27
F0.00021486892995272884
sg28
F0.00021486892995272884
sg29
F0.00021486892995272884
sg30
F0.00021486892995272884
sg31
F0.00021486892995272884
sg32
F0.00021486892995272884
sg33
F0.0004297378599054577
sg34
F0.001289213579716373
sg35
F0.0008594757198109154
sg36
F0.00021486892995272884
sg37
F0.00021486892995272884
sg38
F0.0030081650193382035
sg39
F0.002578427159432746
sg40
F0.001289213579716373
sg41
F0.00021486892995272884
sg42
F0.0017189514396218307
sg43
F0.0017189514396218307
sg44
F0.00021486892995272884
sg45
F0.001289213579716373
sg46
F0.00021486892995272884
sg47
F0.00021486892995272884
sg48
F0.20326600773528147
sg49
F0.00021486892995272884
sg50
F0.00021486892995272884
sg51
F0.4671250537172325
sg52
F0.0004297378599054577
sg53
F0.0004297378599054577
sg54
F0.00021486892995272884
sg55
F0.05844434894714224
sg56
F0.00021486892995272884
sg57
F0.0008594757198109154
sg58
F0.0004297378599054577
sg59
F0.00021486892995272884
sg60
F0.00021486892995272884
sg61
F0.48259561667382894
sg62
F0.00021486892995272884
sg63
F0.00021486892995272884
sg64
F0.00021486892995272884
sg65
F0.00021486892995272884
sg66
F0.00021486892995272884
sg67
F0.013321873657069187
sg68
F0.00021486892995272884
sg69
F0.00021486892995272884
sg70
F0.00021486892995272884
sg71
F0.001289213579716373
sg72
F0.00021486892995272884
sg73
F0.00021486892995272884
ssg37
(dp108
g1
F0.00211864406779661
sg3
F0.19915254237288135
sg4
F0.00211864406779661
sg5
F0.00211864406779661
sg6
F0.00423728813559322
sg7
F0.00211864406779661
sg8
F0.00211864406779661
sg9
F0.00211864406779661
sg10
F0.025423728813559324
sg11
F0.00211864406779661
sg12
F0.00211864406779661
sg13
F0.00423728813559322
sg14
F0.00211864406779661
sg15
F0.00211864406779661
sg16
F0.00211864406779661
sg17
F0.00211864406779661
sg18
F0.00211864406779661
sg19
F0.00211864406779661
sg20
F0.00211864406779661
sg21
F0.00211864406779661
sg22
F0.00211864406779661
sg23
F0.00211864406779661
sg24
F0.00211864406779661
sg25
F0.00423728813559322
sg26
F0.00211864406779661
sg27
F0.00211864406779661
sg28
F0.00211864406779661
sg29
F0.00211864406779661
sg30
F0.00211864406779661
sg31
F0.00211864406779661
sg32
F0.00211864406779661
sg33
F0.00211864406779661
sg34
F0.00211864406779661
sg35
F0.00211864406779661
sg36
F0.00211864406779661
sg37
F0.00211864406779661
sg38
F0.00211864406779661
sg39
F0.00211864406779661
sg40
F0.00211864406779661
sg41
F0.0211864406779661
sg42
F0.00211864406779661
sg43
F0.00211864406779661
sg44
F0.00211864406779661
sg45
F0.00211864406779661
sg46
F0.00211864406779661
sg47
F0.00211864406779661
sg48
F0.00211864406779661
sg49
F0.00211864406779661
sg50
F0.00211864406779661
sg51
F0.00211864406779661
sg52
F0.00211864406779661
sg53
F0.00211864406779661
sg54
F0.00211864406779661
sg55
F0.00211864406779661
sg56
F0.00211864406779661
sg57
F0.00211864406779661
sg58
F0.00211864406779661
sg59
F0.00211864406779661
sg60
F0.00211864406779661
sg61
F0.00211864406779661
sg62
F0.00211864406779661
sg63
F0.00211864406779661
sg64
F0.00211864406779661
sg65
F0.00211864406779661
sg66
F0.00211864406779661
sg67
F0.5847457627118644
sg68
F0.00211864406779661
sg69
F0.00211864406779661
sg70
F0.00211864406779661
sg71
F0.00211864406779661
sg72
F0.00211864406779661
sg73
F0.00211864406779661
ssg38
(dp109
g1
F0.0001337971635001338
sg3
F0.025421461065025422
sg4
F0.0001337971635001338
sg5
F0.0008027829810008028
sg6
F0.0001337971635001338
sg7
F0.0001337971635001338
sg8
F0.0029435375970029436
sg9
F0.0001337971635001338
sg10
F0.018731602890018732
sg11
F0.0001337971635001338
sg12
F0.0001337971635001338
sg13
F0.0001337971635001338
sg14
F0.0001337971635001338
sg15
F0.0001337971635001338
sg16
F0.0001337971635001338
sg17
F0.0001337971635001338
sg18
F0.0001337971635001338
sg19
F0.0001337971635001338
sg20
F0.0001337971635001338
sg21
F0.0001337971635001338
sg22
F0.0005351886540005352
sg23
F0.0001337971635001338
sg24
F0.002408348943002408
sg25
F0.0001337971635001338
sg26
F0.0001337971635001338
sg27
F0.0001337971635001338
sg28
F0.0002675943270002676
sg29
F0.0016055659620016055
sg30
F0.0008027829810008028
sg31
F0.0001337971635001338
sg32
F0.0001337971635001338
sg33
F0.0002675943270002676
sg34
F0.0001337971635001338
sg35
F0.0002675943270002676
sg36
F0.0001337971635001338
sg37
F0.0002675943270002676
sg38
F0.0001337971635001338
sg39
F0.0001337971635001338
sg40
F0.0002675943270002676
sg41
F0.0001337971635001338
sg42
F0.0010703773080010704
sg43
F0.0002675943270002676
sg44
F0.0001337971635001338
sg45
F0.0001337971635001338
sg46
F0.0001337971635001338
sg47
F0.0001337971635001338
sg48
F0.27374899652127377
sg49
F0.0001337971635001338
sg50
F0.0001337971635001338
sg51
F0.15065560610115067
sg52
F0.0001337971635001338
sg53
F0.0001337971635001338
sg54
F0.002408348943002408
sg55
F0.07305325127107305
sg56
F0.05565962001605566
sg57
F0.0001337971635001338
sg58
F0.0001337971635001338
sg59
F0.0002675943270002676
sg60
F0.0751940058870752
sg61
F0.1453037195611453
sg62
F0.0001337971635001338
sg63
F0.0001337971635001338
sg64
F0.001337971635001338
sg65
F0.004013914905004014
sg66
F0.30933904201230933
sg67
F0.057800374632057804
sg68
F0.007492641156007493
sg69
F0.0001337971635001338
sg70
F0.0001337971635001338
sg71
F0.0021407546160021407
sg72
F0.0001337971635001338
sg73
F0.0001337971635001338
ssg39
(dp110
g1
F7.744733581164808e-05
sg3
F0.013475836431226766
sg4
F7.744733581164808e-05
sg5
F7.744733581164808e-05
sg6
F7.744733581164808e-05
sg7
F7.744733581164808e-05
sg8
F0.0007744733581164808
sg9
F7.744733581164808e-05
sg10
F0.04941140024783147
sg11
F7.744733581164808e-05
sg12
F7.744733581164808e-05
sg13
F7.744733581164808e-05
sg14
F7.744733581164808e-05
sg15
F7.744733581164808e-05
sg16
F7.744733581164808e-05
sg17
F7.744733581164808e-05
sg18
F7.744733581164808e-05
sg19
F7.744733581164808e-05
sg20
F7.744733581164808e-05
sg21
F7.744733581164808e-05
sg22
F0.0040272614622057
sg23
F0.0003097893432465923
sg24
F0.004182156133828996
sg25
F0.0023234200743494425
sg26
F0.0003097893432465923
sg27
F0.00015489467162329616
sg28
F0.00015489467162329616
sg29
F0.0010842627013630732
sg30
F0.0030978934324659233
sg31
F7.744733581164808e-05
sg32
F7.744733581164808e-05
sg33
F0.0013940520446096654
sg34
F7.744733581164808e-05
sg35
F0.0006195786864931846
sg36
F0.0006195786864931846
sg37
F7.744733581164808e-05
sg38
F0.0021685254027261464
sg39
F0.0018587360594795538
sg40
F0.0018587360594795538
sg41
F0.00015489467162329616
sg42
F7.744733581164808e-05
sg43
F0.0015489467162329617
sg44
F7.744733581164808e-05
sg45
F7.744733581164808e-05
sg46
F7.744733581164808e-05
sg47
F7.744733581164808e-05
sg48
F0.10641263940520446
sg49
F0.06319702602230483
sg50
F0.00015489467162329616
sg51
F0.16449814126394052
sg52
F7.744733581164808e-05
sg53
F7.744733581164808e-05
sg54
F7.744733581164808e-05
sg55
F0.0807001239157373
sg56
F0.15102230483271376
sg57
F0.013630731102850062
sg58
F7.744733581164808e-05
sg59
F0.01657372986369269
sg60
F0.013785625774473358
sg61
F0.19950433705080545
sg62
F0.005885997521685254
sg63
F0.007125154894671623
sg64
F0.04941140024783147
sg65
F7.744733581164808e-05
sg66
F0.0010842627013630732
sg67
F0.08736059479553904
sg68
F0.2774163568773234
sg69
F0.015489467162329617
sg70
F0.0003097893432465923
sg71
F0.013785625774473358
sg72
F7.744733581164808e-05
sg73
F0.0027881040892193307
ssg40
(dp111
g1
F0.00018608113137327876
sg3
F0.024190547078526237
sg4
F0.00018608113137327876
sg5
F0.00148864905098623
sg6
F0.00018608113137327876
sg7
F0.00018608113137327876
sg8
F0.004093784890212133
sg9
F0.00018608113137327876
sg10
F0.030145143282471157
sg11
F0.00018608113137327876
sg12
F0.00018608113137327876
sg13
F0.00018608113137327876
sg14
F0.00018608113137327876
sg15
F0.00018608113137327876
sg16
F0.00018608113137327876
sg17
F0.00018608113137327876
sg18
F0.00018608113137327876
sg19
F0.00018608113137327876
sg20
F0.00018608113137327876
sg21
F0.00018608113137327876
sg22
F0.0018608113137327876
sg23
F0.0026051358392259025
sg24
F0.0003721622627465575
sg25
F0.003721622627465575
sg26
F0.004093784890212133
sg27
F0.00018608113137327876
sg28
F0.0003721622627465575
sg29
F0.000744324525493115
sg30
F0.00018608113137327876
sg31
F0.00018608113137327876
sg32
F0.00018608113137327876
sg33
F0.00018608113137327876
sg34
F0.002232973576479345
sg35
F0.0018608113137327876
sg36
F0.00018608113137327876
sg37
F0.00018608113137327876
sg38
F0.00018608113137327876
sg39
F0.00148864905098623
sg40
F0.00018608113137327876
sg41
F0.00018608113137327876
sg42
F0.00018608113137327876
sg43
F0.00018608113137327876
sg44
F0.000744324525493115
sg45
F0.00018608113137327876
sg46
F0.00018608113137327876
sg47
F0.00018608113137327876
sg48
F0.12876814291030889
sg49
F0.00018608113137327876
sg50
F0.00018608113137327876
sg51
F0.3796055080014886
sg52
F0.0011164867882396724
sg53
F0.00018608113137327876
sg54
F0.00018608113137327876
sg55
F0.13025679196129514
sg56
F0.05098622999627838
sg57
F0.00018608113137327876
sg58
F0.00018608113137327876
sg59
F0.00018608113137327876
sg60
F0.00018608113137327876
sg61
F0.2757722366951991
sg62
F0.00018608113137327876
sg63
F0.00018608113137327876
sg64
F0.00018608113137327876
sg65
F0.00018608113137327876
sg66
F0.00018608113137327876
sg67
F0.1347227391142538
sg68
F0.000744324525493115
sg69
F0.00018608113137327876
sg70
F0.00018608113137327876
sg71
F0.003721622627465575
sg72
F0.00018608113137327876
sg73
F0.00018608113137327876
ssg41
(dp112
g1
F0.00037650602409638556
sg3
F0.025602409638554216
sg4
F0.00037650602409638556
sg5
F0.0030120481927710845
sg6
F0.00037650602409638556
sg7
F0.00037650602409638556
sg8
F0.0015060240963855422
sg9
F0.00037650602409638556
sg10
F0.2319277108433735
sg11
F0.00037650602409638556
sg12
F0.00037650602409638556
sg13
F0.00037650602409638556
sg14
F0.00037650602409638556
sg15
F0.00037650602409638556
sg16
F0.00037650602409638556
sg17
F0.00037650602409638556
sg18
F0.00037650602409638556
sg19
F0.00037650602409638556
sg20
F0.00037650602409638556
sg21
F0.00037650602409638556
sg22
F0.00037650602409638556
sg23
F0.0015060240963855422
sg24
F0.00037650602409638556
sg25
F0.00037650602409638556
sg26
F0.00037650602409638556
sg27
F0.0007530120481927711
sg28
F0.0037650602409638554
sg29
F0.00037650602409638556
sg30
F0.00037650602409638556
sg31
F0.0007530120481927711
sg32
F0.00037650602409638556
sg33
F0.0007530120481927711
sg34
F0.00037650602409638556
sg35
F0.00037650602409638556
sg36
F0.008283132530120483
sg37
F0.00037650602409638556
sg38
F0.0037650602409638554
sg39
F0.011295180722891566
sg40
F0.00037650602409638556
sg41
F0.00037650602409638556
sg42
F0.00037650602409638556
sg43
F0.00037650602409638556
sg44
F0.00037650602409638556
sg45
F0.00037650602409638556
sg46
F0.00037650602409638556
sg47
F0.00037650602409638556
sg48
F0.00037650602409638556
sg49
F0.00037650602409638556
sg50
F0.00037650602409638556
sg51
F0.00037650602409638556
sg52
F0.005271084337349397
sg53
F0.00037650602409638556
sg54
F0.00037650602409638556
sg55
F0.00037650602409638556
sg56
F0.0015060240963855422
sg57
F0.0030120481927710845
sg58
F0.00037650602409638556
sg59
F0.0015060240963855422
sg60
F0.02108433734939759
sg61
F0.00037650602409638556
sg62
F0.7131024096385542
sg63
F0.00037650602409638556
sg64
F0.043674698795180725
sg65
F0.04141566265060241
sg66
F0.01581325301204819
sg67
F0.00037650602409638556
sg68
F0.0338855421686747
sg69
F0.00037650602409638556
sg70
F0.00037650602409638556
sg71
F0.00037650602409638556
sg72
F0.0007530120481927711
sg73
F0.00037650602409638556
ssg42
(dp113
g1
F0.0001621796951021732
sg3
F0.024975673045734673
sg4
F0.0001621796951021732
sg5
F0.0006487187804086928
sg6
F0.0003243593902043464
sg7
F0.0001621796951021732
sg8
F0.0006487187804086928
sg9
F0.0001621796951021732
sg10
F0.011028219266947779
sg11
F0.0001621796951021732
sg12
F0.0001621796951021732
sg13
F0.0001621796951021732
sg14
F0.0001621796951021732
sg15
F0.0001621796951021732
sg16
F0.0001621796951021732
sg17
F0.0001621796951021732
sg18
F0.0001621796951021732
sg19
F0.0001621796951021732
sg20
F0.0001621796951021732
sg21
F0.0001621796951021732
sg22
F0.004865390853065196
sg23
F0.0045410314628608495
sg24
F0.0001621796951021732
sg25
F0.0003243593902043464
sg26
F0.0001621796951021732
sg27
F0.0001621796951021732
sg28
F0.0012974375608173856
sg29
F0.0001621796951021732
sg30
F0.0009730781706130393
sg31
F0.0001621796951021732
sg32
F0.0001621796951021732
sg33
F0.0001621796951021732
sg34
F0.0001621796951021732
sg35
F0.011352578657152125
sg36
F0.0012974375608173856
sg37
F0.0001621796951021732
sg38
F0.0006487187804086928
sg39
F0.006811547194291274
sg40
F0.0022705157314304248
sg41
F0.0025948751216347712
sg42
F0.0001621796951021732
sg43
F0.0001621796951021732
sg44
F0.018164125851443398
sg45
F0.0001621796951021732
sg46
F0.0001621796951021732
sg47
F0.0001621796951021732
sg48
F0.09179370742783004
sg49
F0.0009730781706130393
sg50
F0.0001621796951021732
sg51
F0.12682452156989946
sg52
F0.0001621796951021732
sg53
F0.0001621796951021732
sg54
F0.0001621796951021732
sg55
F0.06325008108984755
sg56
F3.4109633473889067
sg57
F0.0001621796951021732
sg58
F0.0001621796951021732
sg59
F0.0001621796951021732
sg60
F0.0001621796951021732
sg61
F0.23029516704508596
sg62
F0.0001621796951021732
sg63
F0.0001621796951021732
sg64
F0.0001621796951021732
sg65
F0.006162828413882582
sg66
F0.1391501783976646
sg67
F0.05708725267596497
sg68
F0.0001621796951021732
sg69
F0.04249108011676938
sg70
F0.0001621796951021732
sg71
F0.0051897502432695424
sg72
F0.0001621796951021732
sg73
F0.0001621796951021732
ssg43
(dp114
g1
F0.0001839587932303164
sg3
F0.010301692420897719
sg4
F0.0001839587932303164
sg5
F0.0001839587932303164
sg6
F0.0001839587932303164
sg7
F0.0001839587932303164
sg8
F0.002207505518763797
sg9
F0.0001839587932303164
sg10
F0.03384841795437822
sg11
F0.0001839587932303164
sg12
F0.0001839587932303164
sg13
F0.0001839587932303164
sg14
F0.0001839587932303164
sg15
F0.0001839587932303164
sg16
F0.0001839587932303164
sg17
F0.0001839587932303164
sg18
F0.0001839587932303164
sg19
F0.0001839587932303164
sg20
F0.0001839587932303164
sg21
F0.0001839587932303164
sg22
F0.0007358351729212656
sg23
F0.0011037527593818985
sg24
F0.0011037527593818985
sg25
F0.0001839587932303164
sg26
F0.0001839587932303164
sg27
F0.0001839587932303164
sg28
F0.0001839587932303164
sg29
F0.0003679175864606328
sg30
F0.0001839587932303164
sg31
F0.0001839587932303164
sg32
F0.0001839587932303164
sg33
F0.0001839587932303164
sg34
F0.0003679175864606328
sg35
F0.001839587932303164
sg36
F0.0001839587932303164
sg37
F0.0001839587932303164
sg38
F0.0001839587932303164
sg39
F0.002207505518763797
sg40
F0.0007358351729212656
sg41
F0.0001839587932303164
sg42
F0.004782928623988227
sg43
F0.0007358351729212656
sg44
F0.0001839587932303164
sg45
F0.0001839587932303164
sg46
F0.0001839587932303164
sg47
F0.0001839587932303164
sg48
F0.3031640912435614
sg49
F0.0001839587932303164
sg50
F0.0001839587932303164
sg51
F0.4484915378955114
sg52
F0.0001839587932303164
sg53
F0.0001839587932303164
sg54
F0.0001839587932303164
sg55
F0.2858719646799117
sg56
F0.5298013245033113
sg57
F0.0001839587932303164
sg58
F0.0001839587932303164
sg59
F0.0007358351729212656
sg60
F0.0001839587932303164
sg61
F0.123252391464312
sg62
F0.0001839587932303164
sg63
F0.0001839587932303164
sg64
F0.0001839587932303164
sg65
F0.0001839587932303164
sg66
F0.029065489330389993
sg67
F0.0007358351729212656
sg68
F0.0001839587932303164
sg69
F0.0001839587932303164
sg70
F0.0001839587932303164
sg71
F0.006990434142752024
sg72
F0.0001839587932303164
sg73
F0.0001839587932303164
ssg44
(dp115
g1
F0.0005714285714285715
sg3
F0.096
sg4
F0.0005714285714285715
sg5
F0.0005714285714285715
sg6
F0.0005714285714285715
sg7
F0.0005714285714285715
sg8
F0.005714285714285714
sg9
F0.0005714285714285715
sg10
F0.016
sg11
F0.0005714285714285715
sg12
F0.0005714285714285715
sg13
F0.0005714285714285715
sg14
F0.0005714285714285715
sg15
F0.0005714285714285715
sg16
F0.0005714285714285715
sg17
F0.0005714285714285715
sg18
F0.0005714285714285715
sg19
F0.0005714285714285715
sg20
F0.0005714285714285715
sg21
F0.0005714285714285715
sg22
F0.011428571428571429
sg23
F0.001142857142857143
sg24
F0.0005714285714285715
sg25
F0.002285714285714286
sg26
F0.0005714285714285715
sg27
F0.0005714285714285715
sg28
F0.0005714285714285715
sg29
F0.0005714285714285715
sg30
F0.0005714285714285715
sg31
F0.0005714285714285715
sg32
F0.0005714285714285715
sg33
F0.0005714285714285715
sg34
F0.0005714285714285715
sg35
F0.0005714285714285715
sg36
F0.0005714285714285715
sg37
F0.0005714285714285715
sg38
F0.001142857142857143
sg39
F0.0005714285714285715
sg40
F0.0005714285714285715
sg41
F0.0005714285714285715
sg42
F0.002285714285714286
sg43
F0.0005714285714285715
sg44
F0.0005714285714285715
sg45
F0.0005714285714285715
sg46
F0.0005714285714285715
sg47
F0.0005714285714285715
sg48
F0.16457142857142856
sg49
F0.0005714285714285715
sg50
F0.0005714285714285715
sg51
F0.21142857142857144
sg52
F0.0005714285714285715
sg53
F0.0005714285714285715
sg54
F0.0005714285714285715
sg55
F0.45257142857142857
sg56
F0.0005714285714285715
sg57
F0.0005714285714285715
sg58
F0.0005714285714285715
sg59
F0.0005714285714285715
sg60
F0.001142857142857143
sg61
F0.10857142857142857
sg62
F0.0005714285714285715
sg63
F0.0005714285714285715
sg64
F0.0005714285714285715
sg65
F0.0005714285714285715
sg66
F0.002285714285714286
sg67
F0.001142857142857143
sg68
F0.0005714285714285715
sg69
F0.0005714285714285715
sg70
F0.0005714285714285715
sg71
F0.0005714285714285715
sg72
F0.0005714285714285715
sg73
F0.0005714285714285715
ssg45
(dp116
g1
F0.0006353240152477764
sg3
F0.0063532401524777635
sg4
F0.0006353240152477764
sg5
F0.0038119440914866584
sg6
F0.0006353240152477764
sg7
F0.0006353240152477764
sg8
F0.011435832274459974
sg9
F0.0006353240152477764
sg10
F0.030495552731893267
sg11
F0.0006353240152477764
sg12
F0.0006353240152477764
sg13
F0.0006353240152477764
sg14
F0.0006353240152477764
sg15
F0.0006353240152477764
sg16
F0.0006353240152477764
sg17
F0.0006353240152477764
sg18
F0.0006353240152477764
sg19
F0.0006353240152477764
sg20
F0.0006353240152477764
sg21
F0.0006353240152477764
sg22
F0.0006353240152477764
sg23
F0.0006353240152477764
sg24
F0.0006353240152477764
sg25
F0.0006353240152477764
sg26
F0.0006353240152477764
sg27
F0.0006353240152477764
sg28
F0.0006353240152477764
sg29
F0.0006353240152477764
sg30
F0.0006353240152477764
sg31
F0.0006353240152477764
sg32
F0.0012706480304955528
sg33
F0.0025412960609911056
sg34
F0.0006353240152477764
sg35
F0.0006353240152477764
sg36
F0.0006353240152477764
sg37
F0.0006353240152477764
sg38
F0.0006353240152477764
sg39
F0.0006353240152477764
sg40
F0.0006353240152477764
sg41
F0.0038119440914866584
sg42
F0.0006353240152477764
sg43
F0.0006353240152477764
sg44
F0.0006353240152477764
sg45
F0.0006353240152477764
sg46
F0.0006353240152477764
sg47
F0.0006353240152477764
sg48
F0.15374841168996187
sg49
F0.0006353240152477764
sg50
F0.0006353240152477764
sg51
F0.241423125794155
sg52
F0.0006353240152477764
sg53
F0.0006353240152477764
sg54
F0.0012706480304955528
sg55
F0.015247776365946633
sg56
F0.0006353240152477764
sg57
F0.0006353240152477764
sg58
F0.0006353240152477764
sg59
F0.0006353240152477764
sg60
F0.0006353240152477764
sg61
F0.9123252858958069
sg62
F0.0006353240152477764
sg63
F0.0012706480304955528
sg64
F0.0006353240152477764
sg65
F0.0006353240152477764
sg66
F0.0006353240152477764
sg67
F0.03303684879288437
sg68
F0.0006353240152477764
sg69
F0.0006353240152477764
sg70
F0.0012706480304955528
sg71
F0.0006353240152477764
sg72
F0.0006353240152477764
sg73
F0.0006353240152477764
ssg46
(dp117
g1
F0.004464285714285714
sg3
F0.11607142857142858
sg4
F0.004464285714285714
sg5
F0.008928571428571428
sg6
F0.004464285714285714
sg7
F0.004464285714285714
sg8
F0.16964285714285715
sg9
F0.004464285714285714
sg10
F0.004464285714285714
sg11
F0.004464285714285714
sg12
F0.004464285714285714
sg13
F0.004464285714285714
sg14
F0.004464285714285714
sg15
F0.004464285714285714
sg16
F0.004464285714285714
sg17
F0.004464285714285714
sg18
F0.004464285714285714
sg19
F0.004464285714285714
sg20
F0.004464285714285714
sg21
F0.004464285714285714
sg22
F0.004464285714285714
sg23
F0.004464285714285714
sg24
F0.004464285714285714
sg25
F0.004464285714285714
sg26
F0.004464285714285714
sg27
F0.026785714285714284
sg28
F0.026785714285714284
sg29
F0.004464285714285714
sg30
F0.004464285714285714
sg31
F0.004464285714285714
sg32
F0.004464285714285714
sg33
F0.004464285714285714
sg34
F0.004464285714285714
sg35
F0.004464285714285714
sg36
F0.004464285714285714
sg37
F0.004464285714285714
sg38
F0.004464285714285714
sg39
F0.004464285714285714
sg40
F0.026785714285714284
sg41
F0.004464285714285714
sg42
F0.004464285714285714
sg43
F0.004464285714285714
sg44
F0.004464285714285714
sg45
F0.004464285714285714
sg46
F0.004464285714285714
sg47
F0.004464285714285714
sg48
F0.017857142857142856
sg49
F0.004464285714285714
sg50
F0.004464285714285714
sg51
F0.008928571428571428
sg52
F0.004464285714285714
sg53
F0.004464285714285714
sg54
F0.004464285714285714
sg55
F0.008928571428571428
sg56
F0.004464285714285714
sg57
F0.004464285714285714
sg58
F0.004464285714285714
sg59
F0.004464285714285714
sg60
F0.004464285714285714
sg61
F0.004464285714285714
sg62
F0.004464285714285714
sg63
F0.004464285714285714
sg64
F0.004464285714285714
sg65
F0.004464285714285714
sg66
F0.004464285714285714
sg67
F0.004464285714285714
sg68
F0.004464285714285714
sg69
F0.004464285714285714
sg70
F0.004464285714285714
sg71
F0.05357142857142857
sg72
F0.004464285714285714
sg73
F0.004464285714285714
ssg47
(dp118
g1
F0.0032258064516129032
sg3
F0.03225806451612903
sg4
F0.0032258064516129032
sg5
F0.0032258064516129032
sg6
F0.0032258064516129032
sg7
F0.0032258064516129032
sg8
F0.012903225806451613
sg9
F0.0032258064516129032
sg10
F0.0032258064516129032
sg11
F0.0032258064516129032
sg12
F0.0032258064516129032
sg13
F0.0032258064516129032
sg14
F0.0032258064516129032
sg15
F0.0032258064516129032
sg16
F0.0032258064516129032
sg17
F0.0032258064516129032
sg18
F0.0032258064516129032
sg19
F0.0032258064516129032
sg20
F0.0032258064516129032
sg21
F0.0032258064516129032
sg22
F0.0032258064516129032
sg23
F0.0032258064516129032
sg24
F0.0032258064516129032
sg25
F0.0032258064516129032
sg26
F0.0032258064516129032
sg27
F0.0032258064516129032
sg28
F0.0032258064516129032
sg29
F0.0032258064516129032
sg30
F0.0032258064516129032
sg31
F0.0032258064516129032
sg32
F0.0032258064516129032
sg33
F0.0032258064516129032
sg34
F0.0032258064516129032
sg35
F0.0032258064516129032
sg36
F0.0032258064516129032
sg37
F0.0032258064516129032
sg38
F0.0032258064516129032
sg39
F0.0032258064516129032
sg40
F0.0032258064516129032
sg41
F0.0032258064516129032
sg42
F0.0032258064516129032
sg43
F0.0032258064516129032
sg44
F0.0032258064516129032
sg45
F0.0032258064516129032
sg46
F0.0032258064516129032
sg47
F0.0032258064516129032
sg48
F0.06451612903225806
sg49
F0.0032258064516129032
sg50
F0.0032258064516129032
sg51
F0.2645161290322581
sg52
F0.0032258064516129032
sg53
F0.0032258064516129032
sg54
F0.0032258064516129032
sg55
F0.10967741935483871
sg56
F0.01935483870967742
sg57
F0.0032258064516129032
sg58
F0.0032258064516129032
sg59
F0.0032258064516129032
sg60
F0.0032258064516129032
sg61
F0.04516129032258064
sg62
F0.0032258064516129032
sg63
F0.0032258064516129032
sg64
F0.0032258064516129032
sg65
F0.0032258064516129032
sg66
F0.0032258064516129032
sg67
F0.04516129032258064
sg68
F0.0032258064516129032
sg69
F0.01935483870967742
sg70
F0.0032258064516129032
sg71
F0.0032258064516129032
sg72
F0.0032258064516129032
sg73
F0.0032258064516129032
ssg48
(dp119
g1
F3.2017212453414954e-06
sg3
F0.0711550529564694
sg4
F1.6008606226707477e-06
sg5
F0.0004930650717825903
sg6
F2.2412048717390468e-05
sg7
F1.6008606226707477e-06
sg8
F0.0003393824520061985
sg9
F1.6008606226707477e-06
sg10
F0.00026894458460868564
sg11
F1.6008606226707477e-06
sg12
F1.6008606226707477e-06
sg13
F1.6008606226707477e-06
sg14
F1.6008606226707477e-06
sg15
F1.6008606226707477e-06
sg16
F1.6008606226707477e-06
sg17
F1.6008606226707477e-06
sg18
F1.6008606226707477e-06
sg19
F1.6008606226707477e-06
sg20
F1.6008606226707477e-06
sg21
F1.6008606226707477e-06
sg22
F1.6008606226707477e-06
sg23
F1.6008606226707477e-06
sg24
F1.6008606226707477e-06
sg25
F1.6008606226707477e-06
sg26
F1.6008606226707477e-06
sg27
F1.9210327472048973e-05
sg28
F1.6008606226707477e-06
sg29
F1.6008606226707477e-06
sg30
F1.6008606226707477e-06
sg31
F1.6008606226707477e-06
sg32
F1.6008606226707477e-06
sg33
F1.6008606226707477e-06
sg34
F1.6008606226707477e-06
sg35
F1.6008606226707477e-06
sg36
F1.6008606226707477e-06
sg37
F1.6008606226707477e-06
sg38
F1.6008606226707477e-06
sg39
F6.403442490682991e-06
sg40
F1.6008606226707477e-06
sg41
F1.6008606226707477e-06
sg42
F1.6008606226707477e-06
sg43
F1.6008606226707477e-06
sg44
F1.6008606226707477e-06
sg45
F1.6008606226707477e-06
sg46
F1.6008606226707477e-06
sg47
F1.6008606226707477e-06
sg48
F0.00012806884981365983
sg49
F0.04389239655238656
sg50
F0.021630828733527143
sg51
F0.0008516578512608378
sg52
F0.039093016405619664
sg53
F0.020180449009387445
sg54
F0.006044849711204743
sg55
F0.033150621774265844
sg56
F0.0010053404710372296
sg57
F0.011087560672617599
sg58
F0.001085383502170767
sg59
F0.025978766184700894
sg60
F0.10260876247070425
sg61
F0.0005603012179347617
sg62
F0.1917542871047475
sg63
F0.00017289294724844078
sg64
F0.017670299553039715
sg65
F0.09037178387100905
sg66
F0.10836545726982826
sg67
F0.010488838799738739
sg68
F0.14644672976192
sg69
F0.006086472087394183
sg70
F0.02080798637347438
sg71
F0.02565219061767606
sg72
F0.0023564668365713406
sg73
F0.0016072640651614307
ssg49
(dp120
g1
F4.091016944992186e-06
sg3
F0.03695824708105941
sg4
F4.091016944992186e-06
sg5
F9.818440667981247e-05
sg6
F7.363830500985934e-05
sg7
F4.091016944992186e-06
sg8
F0.00037637355893928114
sg9
F4.091016944992186e-06
sg10
F0.0010145722023580622
sg11
F4.091016944992186e-06
sg12
F4.091016944992186e-06
sg13
F4.091016944992186e-06
sg14
F4.091016944992186e-06
sg15
F4.091016944992186e-06
sg16
F4.091016944992186e-06
sg17
F4.091016944992186e-06
sg18
F4.091016944992186e-06
sg19
F4.091016944992186e-06
sg20
F4.091016944992186e-06
sg21
F4.091016944992186e-06
sg22
F7.363830500985934e-05
sg23
F0.0004336477961691717
sg24
F4.091016944992186e-06
sg25
F4.091016944992186e-05
sg26
F5.7274237229890606e-05
sg27
F6.545627111987498e-05
sg28
F0.0001227305083497656
sg29
F1.6364067779968746e-05
sg30
F4.091016944992186e-06
sg31
F0.00011454847445978121
sg32
F4.091016944992186e-06
sg33
F4.091016944992186e-06
sg34
F5.7274237229890606e-05
sg35
F4.091016944992186e-06
sg36
F9.818440667981247e-05
sg37
F8.182033889984373e-06
sg38
F4.9092203339906237e-05
sg39
F8.182033889984373e-06
sg40
F8.182033889984373e-06
sg41
F4.091016944992186e-06
sg42
F3.272813555993749e-05
sg43
F1.6364067779968746e-05
sg44
F4.091016944992186e-06
sg45
F4.091016944992186e-06
sg46
F4.091016944992186e-06
sg47
F4.091016944992186e-06
sg48
F0.12719789885369706
sg49
F0.017689557270146213
sg50
F4.9092203339906237e-05
sg51
F0.16249519305508964
sg52
F9.818440667981247e-05
sg53
F4.091016944992186e-06
sg54
F5.7274237229890606e-05
sg55
F0.06453170129030675
sg56
F0.14300558832914687
sg57
F0.03651641725100025
sg58
F4.091016944992186e-06
sg59
F0.00026182508447949993
sg60
F0.035534573184202126
sg61
F0.1811911404937039
sg62
F0.0002045508472496093
sg63
F0.0011045745751478903
sg64
F2.4546101669953118e-05
sg65
F0.0054410525368396075
sg66
F0.03560821148921199
sg67
F0.03265449725492763
sg68
F0.10800284734779371
sg69
F1.6364067779968746e-05
sg70
F4.091016944992186e-06
sg71
F0.008623863720043529
sg72
F4.091016944992186e-06
sg73
F4.091016944992186e-05
ssg50
(dp121
g1
F9.046662686135085e-06
sg3
F0.012448207856121876
sg4
F9.046662686135085e-06
sg5
F0.0002352132298395122
sg6
F9.046662686135085e-06
sg7
F9.046662686135085e-06
sg8
F0.0005427997611681051
sg9
F9.046662686135085e-06
sg10
F0.0007599196656353471
sg11
F1.809332537227017e-05
sg12
F9.046662686135085e-06
sg13
F9.046662686135085e-06
sg14
F9.046662686135085e-06
sg15
F9.046662686135085e-06
sg16
F1.809332537227017e-05
sg17
F9.046662686135085e-06
sg18
F9.046662686135085e-06
sg19
F9.046662686135085e-06
sg20
F9.046662686135085e-06
sg21
F9.046662686135085e-06
sg22
F9.046662686135085e-06
sg23
F1.809332537227017e-05
sg24
F9.046662686135085e-06
sg25
F9.046662686135085e-06
sg26
F9.046662686135085e-06
sg27
F9.046662686135085e-06
sg28
F9.046662686135085e-06
sg29
F9.046662686135085e-06
sg30
F9.046662686135085e-06
sg31
F9.046662686135085e-06
sg32
F9.046662686135085e-06
sg33
F9.046662686135085e-06
sg34
F9.046662686135085e-06
sg35
F9.046662686135085e-06
sg36
F9.046662686135085e-06
sg37
F9.046662686135085e-06
sg38
F9.046662686135085e-06
sg39
F9.046662686135085e-06
sg40
F9.046662686135085e-06
sg41
F9.046662686135085e-06
sg42
F9.046662686135085e-06
sg43
F9.046662686135085e-06
sg44
F9.046662686135085e-06
sg45
F9.046662686135085e-06
sg46
F9.046662686135085e-06
sg47
F9.046662686135085e-06
sg48
F0.07796413902911216
sg49
F0.00027139988058405253
sg50
F0.006730717038484503
sg51
F0.3259512565814471
sg52
F0.000633266388029456
sg53
F0.00016283992835043154
sg54
F9.046662686135084e-05
sg55
F0.052796323436284355
sg56
F0.00016283992835043154
sg57
F3.618665074454034e-05
sg58
F0.010801715247245292
sg59
F0.0021892923700446904
sg60
F0.13370967450107654
sg61
F0.10895800539181096
sg62
F0.00027139988058405253
sg63
F9.046662686135085e-06
sg64
F0.00016283992835043154
sg65
F0.022707123342199063
sg66
F0.04847201867231178
sg67
F0.09359677215075358
sg68
F0.007942969838426604
sg69
F0.00018093325372270169
sg70
F0.0034558251461036023
sg71
F0.0907923067180517
sg72
F9.046662686135085e-06
sg73
F9.046662686135085e-06
ssg51
(dp122
g1
F1.0043024316170475e-06
sg3
F0.33834145479233035
sg4
F1.0043024316170475e-06
sg5
F0.0016410301732622556
sg6
F1.0043024316170475e-06
sg7
F1.0043024316170475e-06
sg8
F0.0022114739544207384
sg9
F1.0043024316170475e-06
sg10
F0.00018680025228077083
sg11
F1.0043024316170475e-06
sg12
F1.0043024316170475e-06
sg13
F1.0043024316170475e-06
sg14
F1.0043024316170475e-06
sg15
F1.0043024316170475e-06
sg16
F1.0043024316170475e-06
sg17
F1.0043024316170475e-06
sg18
F1.0043024316170475e-06
sg19
F1.0043024316170475e-06
sg20
F1.0043024316170475e-06
sg21
F1.0043024316170475e-06
sg22
F1.0043024316170475e-06
sg23
F4.01720972646819e-06
sg24
F1.0043024316170475e-06
sg25
F1.0043024316170475e-06
sg26
F1.0043024316170475e-06
sg27
F2.008604863234095e-06
sg28
F2.008604863234095e-06
sg29
F1.0043024316170475e-06
sg30
F2.008604863234095e-06
sg31
F1.4060234042638664e-05
sg32
F1.0043024316170475e-06
sg33
F1.0043024316170475e-06
sg34
F1.0043024316170475e-06
sg35
F1.0043024316170475e-06
sg36
F1.0043024316170475e-06
sg37
F1.0043024316170475e-06
sg38
F1.0043024316170475e-05
sg39
F8.03441945293638e-06
sg40
F1.0043024316170475e-06
sg41
F1.0043024316170475e-06
sg42
F1.0043024316170475e-06
sg43
F2.008604863234095e-06
sg44
F1.0043024316170475e-06
sg45
F1.0043024316170475e-06
sg46
F1.0043024316170475e-06
sg47
F1.0043024316170475e-06
sg48
F0.04521771268112594
sg49
F0.028688903261572578
sg50
F0.0014241008480329732
sg51
F0.025597660377055305
sg52
F0.07546529331656818
sg53
F0.007437863808555854
sg54
F0.009554933334404589
sg55
F0.010533123902799594
sg56
F0.001438161082075612
sg57
F0.0014642729452976552
sg58
F0.0002711616565366028
sg59
F0.023297807808652267
sg60
F0.03339104724640359
sg61
F0.004252216495466579
sg62
F0.09003973020419477
sg63
F0.003115346142876081
sg64
F0.010667700428636278
sg65
F0.08155940047162043
sg66
F0.12915530131081554
sg67
F0.0010284056899758566
sg68
F0.026917313772200104
sg69
F0.008486355547164051
sg70
F0.01619738961711974
sg71
F0.009797974522855914
sg72
F0.012304713392172066
sg73
F0.0002731702613998369
ssg52
(dp123
g1
F3.3521500690542913e-06
sg3
F0.5562825996594215
sg4
F3.3521500690542913e-06
sg5
F0.0018704997385322946
sg6
F3.3521500690542913e-06
sg7
F3.3521500690542913e-06
sg8
F0.0030638651631156224
sg9
F3.3521500690542913e-06
sg10
F0.00018772040386704031
sg11
F3.3521500690542913e-06
sg12
F3.3521500690542913e-06
sg13
F3.3521500690542913e-06
sg14
F3.3521500690542913e-06
sg15
F3.3521500690542913e-06
sg16
F3.3521500690542913e-06
sg17
F3.3521500690542913e-06
sg18
F3.3521500690542913e-06
sg19
F3.3521500690542913e-06
sg20
F3.3521500690542913e-06
sg21
F3.3521500690542913e-06
sg22
F3.3521500690542913e-06
sg23
F3.3521500690542913e-06
sg24
F3.3521500690542913e-06
sg25
F3.3521500690542913e-06
sg26
F3.3521500690542913e-06
sg27
F3.3521500690542913e-06
sg28
F3.3521500690542913e-06
sg29
F3.3521500690542913e-06
sg30
F3.3521500690542913e-06
sg31
F3.3521500690542913e-06
sg32
F3.3521500690542913e-06
sg33
F3.3521500690542913e-06
sg34
F3.3521500690542913e-06
sg35
F3.3521500690542913e-06
sg36
F3.3521500690542913e-06
sg37
F3.3521500690542913e-06
sg38
F3.3521500690542913e-06
sg39
F3.3521500690542913e-06
sg40
F3.3521500690542913e-06
sg41
F3.3521500690542913e-06
sg42
F3.3521500690542913e-06
sg43
F3.3521500690542913e-06
sg44
F3.3521500690542913e-06
sg45
F3.3521500690542913e-06
sg46
F3.3521500690542913e-06
sg47
F3.3521500690542913e-06
sg48
F0.030196167822041056
sg49
F0.0004290752088389493
sg50
F0.0006972472143632926
sg51
F0.1538905053701444
sg52
F0.00927204709100417
sg53
F0.006684187237694257
sg54
F0.0003888494080102978
sg55
F0.09353169122675284
sg56
F0.0008581504176778986
sg57
F6.704300138108583e-05
sg58
F0.0013542686278979338
sg59
F0.0036404349749929606
sg60
F0.008239584869735448
sg61
F0.03751055927271752
sg62
F0.0034460102709878114
sg63
F0.00042237090870084074
sg64
F0.0001541989031764974
sg65
F0.026093136137518604
sg66
F0.017545153461430162
sg67
F0.02626744794110943
sg68
F0.0004894139100819266
sg69
F0.0017095965352176886
sg70
F0.0036538435752691777
sg71
F0.011806272543209215
sg72
F3.3521500690542913e-06
sg73
F2.0112900414325748e-05
ssg53
(dp124
g1
F6.867094257735782e-06
sg3
F0.3407726854458804
sg4
F6.867094257735782e-06
sg5
F0.0010300641386603673
sg6
F6.867094257735782e-06
sg7
F6.867094257735782e-06
sg8
F0.0032824710551977035
sg9
F6.867094257735782e-06
sg10
F0.002005191523258848
sg11
F6.867094257735782e-06
sg12
F6.867094257735782e-06
sg13
F6.867094257735782e-06
sg14
F6.867094257735782e-06
sg15
F6.867094257735782e-06
sg16
F6.867094257735782e-06
sg17
F6.867094257735782e-06
sg18
F6.867094257735782e-06
sg19
F6.867094257735782e-06
sg20
F6.867094257735782e-06
sg21
F6.867094257735782e-06
sg22
F6.867094257735782e-06
sg23
F6.867094257735782e-06
sg24
F6.867094257735782e-06
sg25
F6.867094257735782e-06
sg26
F6.867094257735782e-06
sg27
F6.867094257735782e-06
sg28
F6.867094257735782e-06
sg29
F6.867094257735782e-06
sg30
F6.867094257735782e-06
sg31
F6.867094257735782e-06
sg32
F6.867094257735782e-06
sg33
F6.867094257735782e-06
sg34
F6.867094257735782e-06
sg35
F6.867094257735782e-06
sg36
F6.867094257735782e-06
sg37
F6.867094257735782e-06
sg38
F6.867094257735782e-06
sg39
F6.867094257735782e-06
sg40
F6.867094257735782e-06
sg41
F6.867094257735782e-06
sg42
F6.867094257735782e-06
sg43
F6.867094257735782e-06
sg44
F6.867094257735782e-06
sg45
F6.867094257735782e-06
sg46
F6.867094257735782e-06
sg47
F6.867094257735782e-06
sg48
F0.060402961091043934
sg49
F6.867094257735782e-06
sg50
F0.00020601282773207344
sg51
F0.1525731002183736
sg52
F0.0005218991635879194
sg53
F0.012017414951037617
sg54
F0.0004944307865569763
sg55
F0.06298498853195258
sg56
F0.10642622680638915
sg57
F5.493675406188625e-05
sg58
F6.867094257735782e-06
sg59
F0.003172597547073931
sg60
F0.023787614508796746
sg61
F0.049566686352336874
sg62
F0.027797997555314445
sg63
F6.867094257735782e-06
sg64
F0.0001098735081237725
sg65
F0.02240046146873412
sg66
F0.08406696790320144
sg67
F0.02961091043935669
sg68
F0.008460260125530483
sg69
F0.00024721539327848813
sg70
F1.3734188515471563e-05
sg71
F0.0072928541017154005
sg72
F6.867094257735782e-06
sg73
F6.867094257735782e-06
ssg54
(dp125
g1
F5.4485817341745945e-06
sg3
F0.4127954493445356
sg4
F5.4485817341745945e-06
sg5
F0.0002942234136454281
sg6
F5.4485817341745945e-06
sg7
F5.4485817341745945e-06
sg8
F0.0037813157235171684
sg9
F5.4485817341745945e-06
sg10
F0.0003814007213922216
sg11
F5.4485817341745945e-06
sg12
F5.4485817341745945e-06
sg13
F5.4485817341745945e-06
sg14
F5.4485817341745945e-06
sg15
F5.4485817341745945e-06
sg16
F5.4485817341745945e-06
sg17
F5.4485817341745945e-06
sg18
F5.4485817341745945e-06
sg19
F5.4485817341745945e-06
sg20
F5.4485817341745945e-06
sg21
F5.4485817341745945e-06
sg22
F5.4485817341745945e-06
sg23
F5.4485817341745945e-06
sg24
F5.4485817341745945e-06
sg25
F5.4485817341745945e-06
sg26
F5.4485817341745945e-06
sg27
F5.4485817341745945e-06
sg28
F5.4485817341745945e-06
sg29
F5.4485817341745945e-06
sg30
F5.4485817341745945e-06
sg31
F5.4485817341745945e-06
sg32
F5.4485817341745945e-06
sg33
F5.4485817341745945e-06
sg34
F5.4485817341745945e-06
sg35
F5.4485817341745945e-06
sg36
F5.4485817341745945e-06
sg37
F5.4485817341745945e-06
sg38
F5.4485817341745945e-06
sg39
F5.4485817341745945e-06
sg40
F5.4485817341745945e-06
sg41
F5.4485817341745945e-06
sg42
F5.4485817341745945e-06
sg43
F5.4485817341745945e-06
sg44
F5.4485817341745945e-06
sg45
F5.4485817341745945e-06
sg46
F5.4485817341745945e-06
sg47
F5.4485817341745945e-06
sg48
F0.05556463652511252
sg49
F3.269149040504757e-05
sg50
F0.00011986879815184107
sg51
F0.07553913716259658
sg52
F4.3588653873396756e-05
sg53
F5.4485817341745945e-05
sg54
F0.05011605479093792
sg55
F0.0920483398171456
sg56
F3.269149040504757e-05
sg57
F5.4485817341745945e-06
sg58
F2.1794326936698378e-05
sg59
F6.538298081009513e-05
sg60
F0.019712968714243682
sg61
F0.16238953000533962
sg62
F4.3588653873396756e-05
sg63
F5.4485817341745945e-06
sg64
F2.1794326936698378e-05
sg65
F0.0012313794719234583
sg66
F0.06372661196290605
sg67
F0.03139472795231401
sg68
F0.02779866400775878
sg69
F0.00011986879815184107
sg70
F5.4485817341745945e-06
sg71
F0.002833262501770789
sg72
F5.4485817341745945e-06
sg73
F5.4485817341745945e-06
ssg55
(dp126
g1
F1.7459807523081865e-06
sg3
F0.0027586495886469348
sg4
F1.7459807523081865e-06
sg5
F0.000233961420809297
sg6
F1.7459807523081865e-06
sg7
F1.7459807523081865e-06
sg8
F0.0008310868380986968
sg9
F1.7459807523081865e-06
sg10
F0.00015713826770773678
sg11
F1.7459807523081865e-06
sg12
F1.7459807523081865e-06
sg13
F1.7459807523081865e-06
sg14
F1.7459807523081865e-06
sg15
F1.7459807523081865e-06
sg16
F1.7459807523081865e-06
sg17
F1.7459807523081865e-06
sg18
F1.7459807523081865e-06
sg19
F1.7459807523081865e-06
sg20
F1.7459807523081865e-06
sg21
F1.7459807523081865e-06
sg22
F1.7459807523081865e-06
sg23
F1.7459807523081865e-06
sg24
F1.7459807523081865e-06
sg25
F1.7459807523081865e-06
sg26
F1.7459807523081865e-06
sg27
F3.491961504616373e-06
sg28
F1.7459807523081865e-06
sg29
F1.7459807523081865e-06
sg30
F3.491961504616373e-06
sg31
F1.7459807523081865e-06
sg32
F1.7459807523081865e-06
sg33
F1.3967846018465492e-05
sg34
F3.491961504616373e-06
sg35
F1.7459807523081865e-06
sg36
F1.7459807523081865e-06
sg37
F1.7459807523081865e-06
sg38
F1.7459807523081865e-06
sg39
F3.491961504616373e-06
sg40
F1.7459807523081865e-06
sg41
F1.7459807523081865e-06
sg42
F1.7459807523081865e-06
sg43
F1.7459807523081865e-06
sg44
F3.491961504616373e-06
sg45
F1.7459807523081865e-06
sg46
F1.7459807523081865e-06
sg47
F1.7459807523081865e-06
sg48
F0.027722682385149387
sg49
F0.07628539102984928
sg50
F0.010074308940818236
sg51
F0.04032866341681449
sg52
F0.03476596873996061
sg53
F0.028717891413965052
sg54
F0.019059125892196164
sg55
F0.00013967846018465494
sg56
F0.00010126688363387481
sg57
F0.005443967985696926
sg58
F0.00012571061416618944
sg59
F0.035129132736440714
sg60
F0.05125151900325451
sg61
F0.08405849733912533
sg62
F0.2547735113768106
sg63
F0.0014456720629111785
sg64
F0.009693685136815051
sg65
F0.12494936655818306
sg66
F0.0346786697023452
sg67
F0.0013618649868003855
sg68
F0.117130864749347
sg69
F4.539549956001285e-05
sg70
F0.029486122944980656
sg71
F6.983923009232746e-06
sg72
F0.002245331247468328
sg73
F0.007546128811475982
ssg56
(dp127
g1
F2.4763385848220257e-06
sg3
F0.10933530119706207
sg4
F2.4763385848220257e-06
sg5
F0.00048536236262511703
sg6
F2.4763385848220257e-06
sg7
F2.4763385848220257e-06
sg8
F0.0012183585837324366
sg9
F2.4763385848220257e-06
sg10
F9.410086622323698e-05
sg11
F2.4763385848220257e-06
sg12
F2.4763385848220257e-06
sg13
F2.4763385848220257e-06
sg14
F2.4763385848220257e-06
sg15
F2.4763385848220257e-06
sg16
F2.4763385848220257e-06
sg17
F2.4763385848220257e-06
sg18
F2.4763385848220257e-06
sg19
F2.4763385848220257e-06
sg20
F2.4763385848220257e-06
sg21
F2.4763385848220257e-06
sg22
F2.4763385848220257e-06
sg23
F2.4763385848220257e-06
sg24
F2.4763385848220257e-06
sg25
F4.952677169644051e-06
sg26
F2.4763385848220257e-06
sg27
F2.4763385848220257e-06
sg28
F2.4763385848220257e-06
sg29
F2.4763385848220257e-06
sg30
F2.4763385848220257e-06
sg31
F2.4763385848220257e-06
sg32
F2.4763385848220257e-06
sg33
F2.4763385848220257e-06
sg34
F2.4763385848220257e-06
sg35
F2.4763385848220257e-06
sg36
F2.4763385848220257e-06
sg37
F2.4763385848220257e-06
sg38
F2.4763385848220257e-06
sg39
F2.4763385848220257e-06
sg40
F2.4763385848220257e-06
sg41
F2.4763385848220257e-06
sg42
F2.4763385848220257e-06
sg43
F2.4763385848220257e-06
sg44
F2.4763385848220257e-06
sg45
F2.4763385848220257e-06
sg46
F2.4763385848220257e-06
sg47
F2.4763385848220257e-06
sg48
F0.14387527177815967
sg49
F0.0005002203941340492
sg50
F0.0008469077960091328
sg51
F0.4797262160060621
sg52
F0.00024763385848220257
sg53
F5.9432126035728616e-05
sg54
F0.00032192401602686334
sg55
F0.12301459553961894
sg56
F0.00016839102376789775
sg57
F3.962141735715241e-05
sg58
F2.4763385848220257e-06
sg59
F0.001634383465982537
sg60
F0.002332710946902348
sg61
F0.07562738038046465
sg62
F0.004452456775510002
sg63
F8.419551188394887e-05
sg64
F0.00011886425207145723
sg65
F0.0020008815765361967
sg66
F0.013644625602369361
sg67
F0.011207908434904488
sg68
F0.021410423404371232
sg69
F0.0009063399220448614
sg70
F3.466874018750836e-05
sg71
F0.007107091738439214
sg72
F2.4763385848220257e-06
sg73
F4.952677169644051e-06
ssg57
(dp128
g1
F2.2589681033703803e-05
sg3
F0.3010300894551369
sg4
F2.2589681033703803e-05
sg5
F0.003569169603325201
sg6
F2.2589681033703803e-05
sg7
F2.2589681033703803e-05
sg8
F0.004834191741212614
sg9
F2.2589681033703803e-05
sg10
F0.0001355380862022228
sg11
F2.2589681033703803e-05
sg12
F2.2589681033703803e-05
sg13
F2.2589681033703803e-05
sg14
F2.2589681033703803e-05
sg15
F2.2589681033703803e-05
sg16
F2.2589681033703803e-05
sg17
F2.2589681033703803e-05
sg18
F2.2589681033703803e-05
sg19
F2.2589681033703803e-05
sg20
F2.2589681033703803e-05
sg21
F2.2589681033703803e-05
sg22
F2.2589681033703803e-05
sg23
F2.2589681033703803e-05
sg24
F2.2589681033703803e-05
sg25
F2.2589681033703803e-05
sg26
F2.2589681033703803e-05
sg27
F2.2589681033703803e-05
sg28
F2.2589681033703803e-05
sg29
F2.2589681033703803e-05
sg30
F2.2589681033703803e-05
sg31
F2.2589681033703803e-05
sg32
F2.2589681033703803e-05
sg33
F2.2589681033703803e-05
sg34
F2.2589681033703803e-05
sg35
F2.2589681033703803e-05
sg36
F2.2589681033703803e-05
sg37
F2.2589681033703803e-05
sg38
F2.2589681033703803e-05
sg39
F2.2589681033703803e-05
sg40
F2.2589681033703803e-05
sg41
F2.2589681033703803e-05
sg42
F2.2589681033703803e-05
sg43
F2.2589681033703803e-05
sg44
F2.2589681033703803e-05
sg45
F2.2589681033703803e-05
sg46
F2.2589681033703803e-05
sg47
F2.2589681033703803e-05
sg48
F0.016671184602873406
sg49
F0.00031625553447185326
sg50
F0.001039125327550375
sg51
F0.33780609017800667
sg52
F0.0010843046896177825
sg53
F0.003117375982651125
sg54
F0.003433631517122978
sg55
F0.1282642089093702
sg56
F0.003478810879190386
sg57
F0.0004517936206740761
sg58
F0.0009487666034155598
sg59
F0.0024848649137074186
sg60
F0.017077798861480076
sg61
F0.010165356465166711
sg62
F0.07395861570434625
sg63
F2.2589681033703803e-05
sg64
F0.001039125327550375
sg65
F0.0635221830667751
sg66
F0.0014005602240896359
sg67
F0.0025752236378422336
sg68
F0.002168609379235565
sg69
F0.0033884521550555705
sg70
F4.5179362067407606e-05
sg71
F0.01396042287882895
sg72
F2.2589681033703803e-05
sg73
F2.2589681033703803e-05
ssg58
(dp129
g1
F0.0001231527093596059
sg3
F0.03103448275862069
sg4
F0.0001231527093596059
sg5
F0.0001231527093596059
sg6
F0.0002463054187192118
sg7
F0.0001231527093596059
sg8
F0.0001231527093596059
sg9
F0.0001231527093596059
sg10
F0.0002463054187192118
sg11
F0.0001231527093596059
sg12
F0.0001231527093596059
sg13
F0.0001231527093596059
sg14
F0.0001231527093596059
sg15
F0.0001231527093596059
sg16
F0.0001231527093596059
sg17
F0.0001231527093596059
sg18
F0.0001231527093596059
sg19
F0.0001231527093596059
sg20
F0.0001231527093596059
sg21
F0.0001231527093596059
sg22
F0.0002463054187192118
sg23
F0.0001231527093596059
sg24
F0.0002463054187192118
sg25
F0.0001231527093596059
sg26
F0.0001231527093596059
sg27
F0.0001231527093596059
sg28
F0.0001231527093596059
sg29
F0.0001231527093596059
sg30
F0.0001231527093596059
sg31
F0.0001231527093596059
sg32
F0.0001231527093596059
sg33
F0.0001231527093596059
sg34
F0.0001231527093596059
sg35
F0.0001231527093596059
sg36
F0.0001231527093596059
sg37
F0.0001231527093596059
sg38
F0.0001231527093596059
sg39
F0.0001231527093596059
sg40
F0.0001231527093596059
sg41
F0.0001231527093596059
sg42
F0.0001231527093596059
sg43
F0.0001231527093596059
sg44
F0.0001231527093596059
sg45
F0.0001231527093596059
sg46
F0.0001231527093596059
sg47
F0.0001231527093596059
sg48
F0.06551724137931035
sg49
F0.0001231527093596059
sg50
F0.0012315270935960591
sg51
F0.24704433497536946
sg52
F0.00270935960591133
sg53
F0.0001231527093596059
sg54
F0.0001231527093596059
sg55
F0.01083743842364532
sg56
F0.0001231527093596059
sg57
F0.0001231527093596059
sg58
F0.0001231527093596059
sg59
F0.0001231527093596059
sg60
F0.0001231527093596059
sg61
F0.26576354679802955
sg62
F0.0001231527093596059
sg63
F0.0001231527093596059
sg64
F0.0001231527093596059
sg65
F0.0001231527093596059
sg66
F0.0001231527093596059
sg67
F0.3608374384236453
sg68
F0.0001231527093596059
sg69
F0.0001231527093596059
sg70
F0.0001231527093596059
sg71
F0.0001231527093596059
sg72
F0.0001231527093596059
sg73
F0.0001231527093596059
ssg59
(dp130
g1
F5.1982076579995215e-06
sg3
F0.1403723995966191
sg4
F5.1982076579995215e-06
sg5
F0.000946073793755913
sg6
F5.1982076579995215e-06
sg7
F5.1982076579995215e-06
sg8
F0.0009980558703359082
sg9
F5.1982076579995215e-06
sg10
F0.0012059841766558891
sg11
F5.1982076579995215e-06
sg12
F5.1982076579995215e-06
sg13
F5.1982076579995215e-06
sg14
F5.1982076579995215e-06
sg15
F5.1982076579995215e-06
sg16
F5.1982076579995215e-06
sg17
F5.1982076579995215e-06
sg18
F5.1982076579995215e-06
sg19
F5.1982076579995215e-06
sg20
F5.1982076579995215e-06
sg21
F5.1982076579995215e-06
sg22
F5.1982076579995215e-06
sg23
F5.1982076579995215e-06
sg24
F5.1982076579995215e-06
sg25
F2.0792830631998086e-05
sg26
F5.1982076579995215e-06
sg27
F5.1982076579995215e-06
sg28
F5.1982076579995215e-06
sg29
F5.1982076579995215e-06
sg30
F5.1982076579995215e-06
sg31
F5.1982076579995215e-06
sg32
F5.1982076579995215e-06
sg33
F5.1982076579995215e-06
sg34
F5.1982076579995215e-06
sg35
F5.1982076579995215e-06
sg36
F5.1982076579995215e-06
sg37
F5.1982076579995215e-06
sg38
F5.1982076579995215e-06
sg39
F5.1982076579995215e-06
sg40
F5.1982076579995215e-06
sg41
F5.1982076579995215e-06
sg42
F5.1982076579995215e-06
sg43
F5.1982076579995215e-06
sg44
F1.0396415315999043e-05
sg45
F5.1982076579995215e-06
sg46
F5.1982076579995215e-06
sg47
F5.1982076579995215e-06
sg48
F0.16713277262000062
sg49
F0.000239117552267978
sg50
F0.03165708463721709
sg51
F0.25613648414026846
sg52
F7.27749072119933e-05
sg53
F0.00035347812074396746
sg54
F0.001185191346023891
sg55
F0.09819414265961096
sg56
F0.00017673906037198373
sg57
F9.35677378439914e-05
sg58
F5.1982076579995215e-06
sg59
F0.031792238036325075
sg60
F0.0014762909748718641
sg61
F0.1042968384501024
sg62
F0.003108528179483714
sg63
F5.1982076579995215e-06
sg64
F0.07379375591296121
sg65
F0.03125162443989313
sg66
F0.00019753189100398183
sg67
F0.04029650576481229
sg68
F0.000239117552267978
sg69
F0.00011436056847598948
sg70
F6.237849189599426e-05
sg71
F0.014554981442398661
sg72
F5.1982076579995215e-06
sg73
F5.1982076579995215e-06
ssg60
(dp131
g1
F3.091151886839112e-06
sg3
F0.17081087096295564
sg4
F3.091151886839112e-06
sg5
F0.0011189969830357584
sg6
F6.182303773678224e-06
sg7
F3.091151886839112e-06
sg8
F0.0025285622434343936
sg9
F3.091151886839112e-06
sg10
F0.00019165141698402493
sg11
F3.091151886839112e-06
sg12
F3.091151886839112e-06
sg13
F3.091151886839112e-06
sg14
F3.091151886839112e-06
sg15
F3.091151886839112e-06
sg16
F3.091151886839112e-06
sg17
F3.091151886839112e-06
sg18
F3.091151886839112e-06
sg19
F3.091151886839112e-06
sg20
F3.091151886839112e-06
sg21
F3.091151886839112e-06
sg22
F3.091151886839112e-06
sg23
F3.091151886839112e-06
sg24
F6.182303773678224e-06
sg25
F3.091151886839112e-06
sg26
F3.091151886839112e-06
sg27
F3.091151886839112e-06
sg28
F3.091151886839112e-06
sg29
F3.091151886839112e-06
sg30
F3.091151886839112e-06
sg31
F3.091151886839112e-06
sg32
F3.091151886839112e-06
sg33
F3.091151886839112e-06
sg34
F3.091151886839112e-06
sg35
F3.091151886839112e-06
sg36
F3.091151886839112e-06
sg37
F3.091151886839112e-06
sg38
F3.091151886839112e-06
sg39
F3.091151886839112e-06
sg40
F3.091151886839112e-06
sg41
F3.091151886839112e-06
sg42
F3.091151886839112e-06
sg43
F3.091151886839112e-06
sg44
F3.091151886839112e-06
sg45
F3.091151886839112e-06
sg46
F3.091151886839112e-06
sg47
F3.091151886839112e-06
sg48
F0.09418739799198773
sg49
F0.0015950343736089816
sg50
F0.0013601068302092091
sg51
F0.1615065037835699
sg52
F0.05560982244423562
sg53
F0.0010571739452989763
sg54
F0.011196152134131263
sg55
F0.11795217369800683
sg56
F0.0003647559226470152
sg57
F0.004741826994411198
sg58
F3.091151886839112e-06
sg59
F0.0059102824076363815
sg60
F0.1213091646471141
sg61
F0.07011350709728473
sg62
F0.001106632375488402
sg63
F2.4729215094712895e-05
sg64
F0.004067955883080271
sg65
F0.025619466838122558
sg66
F0.0022874523962609426
sg67
F0.02494559572679163
sg68
F0.021545328651268607
sg69
F0.0025409268509817497
sg70
F0.006169939166130867
sg71
F0.08994633760324447
sg72
F3.091151886839112e-06
sg73
F0.00011746377169988624
ssg61
(dp132
g1
F1.6575391510747484e-06
sg3
F0.11510614880723483
sg4
F1.6575391510747484e-06
sg5
F0.0004574808056966306
sg6
F1.6575391510747484e-06
sg7
F3.3150783021494968e-06
sg8
F0.001495100314269423
sg9
F1.6575391510747484e-06
sg10
F0.0003978093962579396
sg11
F1.6575391510747484e-06
sg12
F1.6575391510747484e-06
sg13
F1.6575391510747484e-06
sg14
F1.6575391510747484e-06
sg15
F1.6575391510747484e-06
sg16
F1.6575391510747484e-06
sg17
F1.6575391510747484e-06
sg18
F1.6575391510747484e-06
sg19
F1.6575391510747484e-06
sg20
F1.6575391510747484e-06
sg21
F1.6575391510747484e-06
sg22
F1.6575391510747484e-06
sg23
F1.6575391510747484e-06
sg24
F1.6575391510747484e-06
sg25
F1.6575391510747484e-06
sg26
F1.6575391510747484e-06
sg27
F1.6575391510747484e-06
sg28
F1.6575391510747484e-06
sg29
F1.6575391510747484e-06
sg30
F1.6575391510747484e-06
sg31
F1.6575391510747484e-06
sg32
F1.6575391510747484e-06
sg33
F1.6575391510747484e-06
sg34
F1.6575391510747484e-06
sg35
F1.6575391510747484e-06
sg36
F1.6575391510747484e-06
sg37
F1.6575391510747484e-06
sg38
F1.6575391510747484e-06
sg39
F1.6575391510747484e-06
sg40
F1.6575391510747484e-06
sg41
F1.6575391510747484e-06
sg42
F1.6575391510747484e-06
sg43
F1.6575391510747484e-06
sg44
F1.6575391510747484e-06
sg45
F1.6575391510747484e-06
sg46
F1.6575391510747484e-06
sg47
F1.6575391510747484e-06
sg48
F0.007790434010051317
sg49
F0.016041663904101416
sg50
F0.010067892803628022
sg51
F0.004710726267354435
sg52
F0.01950260565154549
sg53
F0.009023643138450931
sg54
F0.11517576545157997
sg55
F0.00876175195258112
sg56
F0.0019393208067574556
sg57
F0.006776020049593571
sg58
F0.0007160569132642913
sg59
F0.05764921167437975
sg60
F0.03780183787941071
sg61
F0.02543659581239309
sg62
F0.17693235914232294
sg63
F0.00011934281887738189
sg64
F0.023354726638643204
sg65
F0.030482144988264622
sg66
F0.13346505244453874
sg67
F0.092580191744129
sg68
F0.04336122419211542
sg69
F0.03495087053956215
sg70
F0.020258443504435574
sg71
F0.004054340763528835
sg72
F0.001408908278413536
sg73
F0.0004409054141858831
ssg62
(dp133
g1
F1.7715105670605326e-06
sg3
F0.2649790075997803
sg4
F1.7715105670605326e-06
sg5
F0.006490814717709791
sg6
F1.7715105670605326e-06
sg7
F1.7715105670605326e-06
sg8
F0.0019238604758277382
sg9
F1.7715105670605326e-06
sg10
F0.0003649311768144697
sg11
F1.7715105670605326e-06
sg12
F1.7715105670605326e-06
sg13
F1.7715105670605326e-06
sg14
F1.7715105670605326e-06
sg15
F1.7715105670605326e-06
sg16
F1.7715105670605326e-06
sg17
F1.7715105670605326e-06
sg18
F1.7715105670605326e-06
sg19
F1.7715105670605326e-06
sg20
F1.7715105670605326e-06
sg21
F1.7715105670605326e-06
sg22
F3.543021134121065e-06
sg23
F1.7715105670605326e-06
sg24
F1.7715105670605326e-06
sg25
F1.7715105670605326e-06
sg26
F1.7715105670605326e-06
sg27
F1.7715105670605326e-06
sg28
F1.7715105670605326e-06
sg29
F1.7715105670605326e-06
sg30
F1.7715105670605326e-06
sg31
F1.7715105670605326e-06
sg32
F1.7715105670605326e-06
sg33
F1.7715105670605326e-06
sg34
F1.7715105670605326e-06
sg35
F1.7715105670605326e-06
sg36
F1.7715105670605326e-06
sg37
F1.7715105670605326e-06
sg38
F1.7715105670605326e-06
sg39
F1.7715105670605326e-06
sg40
F1.7715105670605326e-06
sg41
F1.7715105670605326e-06
sg42
F1.7715105670605326e-06
sg43
F1.7715105670605326e-06
sg44
F1.7715105670605326e-06
sg45
F1.7715105670605326e-06
sg46
F1.7715105670605326e-06
sg47
F1.7715105670605326e-06
sg48
F0.03447005261386384
sg49
F0.044557033782706514
sg50
F0.0004853938953745859
sg51
F0.07747170011869121
sg52
F0.14399546493294832
sg53
F0.10972736452372939
sg54
F0.006249889280589558
sg55
F0.039008662686672926
sg56
F0.001193998122198799
sg57
F0.005757409342946731
sg58
F0.0011621109319917093
sg59
F0.002873390139772184
sg60
F0.00785133483321228
sg61
F0.044989282361069284
sg62
F0.010409396092047688
sg63
F0.0005881415082640968
sg64
F0.0006660879732147602
sg65
F0.05459441265567149
sg66
F0.0010947935304434092
sg67
F0.00878314939148612
sg68
F0.1116831121897642
sg69
F0.0006483728675441549
sg70
F0.005194068982621481
sg71
F0.01220925082818119
sg72
F0.0002834416907296852
sg73
F0.0003224149232050169
ssg63
(dp134
g1
F0.00011371389583807141
sg3
F0.0015919945417329998
sg4
F0.00011371389583807141
sg5
F0.00011371389583807141
sg6
F0.00011371389583807141
sg7
F0.00011371389583807141
sg8
F0.00011371389583807141
sg9
F0.00011371389583807141
sg10
F0.0020468501250852852
sg11
F0.00011371389583807141
sg12
F0.00011371389583807141
sg13
F0.00011371389583807141
sg14
F0.00011371389583807141
sg15
F0.00011371389583807141
sg16
F0.00011371389583807141
sg17
F0.00011371389583807141
sg18
F0.00011371389583807141
sg19
F0.00011371389583807141
sg20
F0.00011371389583807141
sg21
F0.00011371389583807141
sg22
F0.00011371389583807141
sg23
F0.00011371389583807141
sg24
F0.00011371389583807141
sg25
F0.00011371389583807141
sg26
F0.00011371389583807141
sg27
F0.00011371389583807141
sg28
F0.00011371389583807141
sg29
F0.00011371389583807141
sg30
F0.00011371389583807141
sg31
F0.00011371389583807141
sg32
F0.00011371389583807141
sg33
F0.00011371389583807141
sg34
F0.00011371389583807141
sg35
F0.00011371389583807141
sg36
F0.00011371389583807141
sg37
F0.00011371389583807141
sg38
F0.00011371389583807141
sg39
F0.00011371389583807141
sg40
F0.00011371389583807141
sg41
F0.00011371389583807141
sg42
F0.00011371389583807141
sg43
F0.00011371389583807141
sg44
F0.00011371389583807141
sg45
F0.00011371389583807141
sg46
F0.00011371389583807141
sg47
F0.00011371389583807141
sg48
F0.00011371389583807141
sg49
F0.00011371389583807141
sg50
F0.00011371389583807141
sg51
F0.00011371389583807141
sg52
F0.00011371389583807141
sg53
F0.00011371389583807141
sg54
F0.00011371389583807141
sg55
F0.00011371389583807141
sg56
F0.00011371389583807141
sg57
F0.00011371389583807141
sg58
F0.00011371389583807141
sg59
F0.00011371389583807141
sg60
F0.0029565612917898565
sg61
F0.00011371389583807141
sg62
F0.0009097111667045713
sg63
F0.00011371389583807141
sg64
F0.00011371389583807141
sg65
F0.00011371389583807141
sg66
F0.00011371389583807141
sg67
F0.9772572208323858
sg68
F0.00011371389583807141
sg69
F0.00045485558335228563
sg70
F0.00022742779167614282
sg71
F0.00011371389583807141
sg72
F0.00011371389583807141
sg73
F0.00011371389583807141
ssg64
(dp135
g1
F6.340028403327247e-06
sg3
F0.05829022114019071
sg4
F6.340028403327247e-06
sg5
F0.00035504159058632583
sg6
F6.340028403327247e-06
sg7
F2.5360113613308988e-05
sg8
F0.0006847230675593427
sg9
F6.340028403327247e-06
sg10
F0.0015342868736051938
sg11
F6.340028403327247e-06
sg12
F6.340028403327247e-06
sg13
F6.340028403327247e-06
sg14
F6.340028403327247e-06
sg15
F6.340028403327247e-06
sg16
F6.340028403327247e-06
sg17
F6.340028403327247e-06
sg18
F6.340028403327247e-06
sg19
F6.340028403327247e-06
sg20
F6.340028403327247e-06
sg21
F6.340028403327247e-06
sg22
F6.340028403327247e-06
sg23
F6.340028403327247e-06
sg24
F6.340028403327247e-06
sg25
F6.340028403327247e-06
sg26
F6.340028403327247e-06
sg27
F6.340028403327247e-06
sg28
F6.340028403327247e-06
sg29
F6.340028403327247e-06
sg30
F0.00010144045445323595
sg31
F6.340028403327247e-06
sg32
F6.340028403327247e-06
sg33
F6.340028403327247e-06
sg34
F6.340028403327247e-06
sg35
F6.340028403327247e-06
sg36
F6.340028403327247e-06
sg37
F6.340028403327247e-06
sg38
F6.340028403327247e-06
sg39
F6.340028403327247e-06
sg40
F6.340028403327247e-06
sg41
F6.340028403327247e-06
sg42
F6.340028403327247e-06
sg43
F6.340028403327247e-06
sg44
F6.340028403327247e-06
sg45
F6.340028403327247e-06
sg46
F6.340028403327247e-06
sg47
F6.340028403327247e-06
sg48
F0.11181274092107933
sg49
F7.608034083992696e-05
sg50
F0.00017752079529316292
sg51
F0.18374670318523026
sg52
F7.608034083992696e-05
sg53
F0.00017752079529316292
sg54
F0.0005832826131061068
sg55
F0.05016230472712518
sg56
F0.03186498275512274
sg57
F0.0003677216473929803
sg58
F6.340028403327247e-05
sg59
F0.007468553459119497
sg60
F0.10244217894096165
sg61
F0.13376191925339825
sg62
F0.0002536011361330899
sg63
F6.340028403327247e-06
sg64
F0.05484124568878069
sg65
F0.020668492594846825
sg66
F0.1651577399066748
sg67
F0.03791336985189694
sg68
F0.033513390139987824
sg69
F0.0004184418746195983
sg70
F1.2680056806654494e-05
sg71
F0.003309494826536823
sg72
F6.340028403327247e-06
sg73
F6.340028403327247e-06
ssg65
(dp136
g1
F1.9472376486715946e-06
sg3
F0.43240359226401426
sg4
F1.9472376486715946e-06
sg5
F0.0016162072483974234
sg6
F1.9472376486715946e-06
sg7
F3.894475297343189e-06
sg8
F0.000802261911252697
sg9
F1.9472376486715946e-06
sg10
F0.0020290216299158016
sg11
F1.9472376486715946e-06
sg12
F1.9472376486715946e-06
sg13
F1.9472376486715946e-06
sg14
F1.9472376486715946e-06
sg15
F1.9472376486715946e-06
sg16
F1.9472376486715946e-06
sg17
F1.9472376486715946e-06
sg18
F1.9472376486715946e-06
sg19
F1.9472376486715946e-06
sg20
F1.9472376486715946e-06
sg21
F1.9472376486715946e-06
sg22
F1.9472376486715946e-06
sg23
F1.9472376486715946e-06
sg24
F1.9472376486715946e-06
sg25
F1.9472376486715946e-06
sg26
F1.9472376486715946e-06
sg27
F1.9472376486715946e-06
sg28
F1.9472376486715946e-06
sg29
F1.9472376486715946e-06
sg30
F1.9472376486715946e-06
sg31
F1.9472376486715946e-06
sg32
F1.9472376486715946e-06
sg33
F1.9472376486715946e-06
sg34
F1.9472376486715946e-06
sg35
F1.9472376486715946e-06
sg36
F1.9472376486715946e-06
sg37
F1.9472376486715946e-06
sg38
F1.9472376486715946e-06
sg39
F1.9472376486715946e-06
sg40
F1.9472376486715946e-06
sg41
F1.9472376486715946e-06
sg42
F1.9472376486715946e-06
sg43
F1.9472376486715946e-06
sg44
F1.9472376486715946e-06
sg45
F1.9472376486715946e-06
sg46
F1.9472376486715946e-06
sg47
F1.9472376486715946e-06
sg48
F0.02360830925249441
sg49
F0.016835816710414606
sg50
F0.0011138199350401521
sg51
F0.10368651031646506
sg52
F0.0009619353984437677
sg53
F0.00019861824016450264
sg54
F0.0019043984204008195
sg55
F0.06636964801732263
sg56
F0.03574738875431313
sg57
F0.0053626924844415716
sg58
F7.788950594686378e-06
sg59
F0.008065458340797744
sg60
F0.007543598650953757
sg61
F0.04253156472228497
sg62
F0.0018810315686167603
sg63
F0.0010787696573640634
sg64
F0.021886951171068723
sg65
F0.048895137358143735
sg66
F0.00040502543092369163
sg67
F0.03410781465413165
sg68
F0.13230311480134282
sg69
F0.0028507559176552144
sg70
F0.0001363066354070116
sg71
F0.005915707976664304
sg72
F1.9472376486715946e-06
sg73
F1.1683425892029568e-05
ssg66
(dp137
g1
F2.028010886362438e-06
sg3
F0.19553675364129355
sg4
F2.028010886362438e-06
sg5
F0.002259204127407756
sg6
F2.028010886362438e-06
sg7
F2.028010886362438e-06
sg8
F0.002417388976544026
sg9
F2.028010886362438e-06
sg10
F0.004133086186406649
sg11
F2.028010886362438e-06
sg12
F2.028010886362438e-06
sg13
F2.028010886362438e-06
sg14
F2.028010886362438e-06
sg15
F2.028010886362438e-06
sg16
F2.028010886362438e-06
sg17
F2.028010886362438e-06
sg18
F2.028010886362438e-06
sg19
F2.028010886362438e-06
sg20
F2.028010886362438e-06
sg21
F2.028010886362438e-06
sg22
F2.028010886362438e-06
sg23
F2.028010886362438e-06
sg24
F2.028010886362438e-06
sg25
F2.028010886362438e-06
sg26
F2.028010886362438e-06
sg27
F2.028010886362438e-06
sg28
F2.028010886362438e-06
sg29
F2.028010886362438e-06
sg30
F2.028010886362438e-06
sg31
F2.028010886362438e-06
sg32
F2.028010886362438e-06
sg33
F2.028010886362438e-06
sg34
F2.028010886362438e-06
sg35
F2.028010886362438e-06
sg36
F2.028010886362438e-06
sg37
F2.028010886362438e-06
sg38
F2.028010886362438e-06
sg39
F2.028010886362438e-06
sg40
F2.028010886362438e-06
sg41
F2.028010886362438e-06
sg42
F2.028010886362438e-06
sg43
F2.028010886362438e-06
sg44
F2.028010886362438e-06
sg45
F2.028010886362438e-06
sg46
F2.028010886362438e-06
sg47
F2.028010886362438e-06
sg48
F0.08283613266436014
sg49
F0.013879706506264525
sg50
F0.003374610114907097
sg51
F0.23186248463781753
sg52
F0.024035985025167614
sg53
F0.012476322972901719
sg54
F0.004157422317042998
sg55
F0.08750461372476648
sg56
F0.001861713993680718
sg57
F0.01230191403667455
sg58
F2.028010886362438e-05
sg59
F0.0213265624809874
sg60
F0.012545275343038042
sg61
F0.09081432749130998
sg62
F0.021192713762487478
sg63
F0.00015412882736354528
sg64
F0.005641926285860303
sg65
F0.05501587932524022
sg66
F0.013818866179673652
sg67
F0.014621958490673178
sg68
F0.04542338783274589
sg69
F0.0014236636422264315
sg70
F0.008339180764722344
sg71
F0.03076086912434546
sg72
F6.895237013632289e-05
sg73
F0.00012573667495447116
ssg67
(dp138
g1
F4.7279535525843e-06
sg3
F0.02045312706847968
sg4
F4.7279535525843e-06
sg5
F0.0015980483007734933
sg6
F4.7279535525843e-06
sg7
F4.7279535525843e-06
sg8
F4.7279535525842996e-05
sg9
F4.7279535525843e-06
sg10
F6.619134973618019e-05
sg11
F4.7279535525843e-06
sg12
F4.7279535525843e-06
sg13
F4.7279535525843e-06
sg14
F4.7279535525843e-06
sg15
F4.7279535525843e-06
sg16
F4.7279535525843e-06
sg17
F4.7279535525843e-06
sg18
F4.7279535525843e-06
sg19
F4.7279535525843e-06
sg20
F4.7279535525843e-06
sg21
F4.7279535525843e-06
sg22
F4.7279535525843e-06
sg23
F4.7279535525843e-06
sg24
F4.7279535525843e-06
sg25
F4.7279535525843e-06
sg26
F4.7279535525843e-06
sg27
F4.7279535525843e-06
sg28
F4.7279535525843e-06
sg29
F4.7279535525843e-06
sg30
F4.7279535525843e-06
sg31
F9.4559071051686e-06
sg32
F4.7279535525843e-06
sg33
F4.7279535525843e-06
sg34
F4.7279535525843e-06
sg35
F4.7279535525843e-06
sg36
F4.7279535525843e-06
sg37
F4.7279535525843e-06
sg38
F3.78236284206744e-05
sg39
F4.7279535525843e-06
sg40
F4.7279535525843e-06
sg41
F4.7279535525843e-06
sg42
F4.7279535525843e-06
sg43
F4.7279535525843e-06
sg44
F9.4559071051686e-06
sg45
F4.7279535525843e-06
sg46
F4.7279535525843e-06
sg47
F4.7279535525843e-06
sg48
F0.03781417251356923
sg49
F0.05157251735158954
sg50
F0.027705807818143996
sg51
F0.04168163851958318
sg52
F0.027450498326304442
sg53
F0.03951623579249958
sg54
F0.005720823798627002
sg55
F0.030816801255744465
sg56
F0.00021748586341887777
sg57
F0.0006713694044669706
sg58
F0.00023639767762921498
sg59
F0.039242014486449685
sg60
F0.09978818768084423
sg61
F0.0031299052518108062
sg62
F0.1150027422130605
sg63
F4.7279535525842996e-05
sg64
F0.04050910603854228
sg65
F0.13534239839627815
sg66
F0.1511999546116459
sg67
F0.00027422130604988937
sg68
F0.12510165100138057
sg69
F1.89118142103372e-05
sg70
F0.0007091930328876449
sg71
F0.0015885923936683245
sg72
F0.0014940333226166386
sg73
F0.0007186489399928135
ssg68
(dp139
g1
F1.396312617639338e-06
sg3
F0.21144361968912495
sg4
F1.396312617639338e-06
sg5
F0.001854303156225041
sg6
F1.396312617639338e-06
sg7
F1.396312617639338e-06
sg8
F0.0016057595102852388
sg9
F1.396312617639338e-06
sg10
F0.0007372530621135705
sg11
F1.396312617639338e-06
sg12
F1.396312617639338e-06
sg13
F1.396312617639338e-06
sg14
F1.396312617639338e-06
sg15
F1.396312617639338e-06
sg16
F1.396312617639338e-06
sg17
F1.396312617639338e-06
sg18
F1.396312617639338e-06
sg19
F1.396312617639338e-06
sg20
F1.396312617639338e-06
sg21
F1.396312617639338e-06
sg22
F1.396312617639338e-06
sg23
F1.396312617639338e-06
sg24
F1.396312617639338e-06
sg25
F1.396312617639338e-06
sg26
F1.396312617639338e-06
sg27
F1.396312617639338e-06
sg28
F1.396312617639338e-06
sg29
F1.396312617639338e-06
sg30
F1.396312617639338e-06
sg31
F1.396312617639338e-06
sg32
F1.396312617639338e-06
sg33
F1.396312617639338e-06
sg34
F1.396312617639338e-06
sg35
F1.396312617639338e-06
sg36
F1.396312617639338e-06
sg37
F1.396312617639338e-06
sg38
F1.396312617639338e-06
sg39
F1.396312617639338e-06
sg40
F1.396312617639338e-06
sg41
F1.396312617639338e-06
sg42
F1.396312617639338e-06
sg43
F1.396312617639338e-06
sg44
F1.396312617639338e-06
sg45
F1.396312617639338e-06
sg46
F1.396312617639338e-06
sg47
F1.396312617639338e-06
sg48
F0.046192814016744584
sg49
F0.0031835927682176907
sg50
F0.00029043302446898233
sg51
F0.10444976904989305
sg52
F0.00014800913746976983
sg53
F0.00018989851599894998
sg54
F0.0006869858078785543
sg55
F0.10976972012309892
sg56
F0.2864954228872394
sg57
F3.9096753293901465e-05
sg58
F1.396312617639338e-06
sg59
F0.002870818741866479
sg60
F0.009578704557005858
sg61
F0.09309774746848522
sg62
F0.0007540088135252425
sg63
F1.396312617639338e-06
sg64
F0.00024295839546924482
sg65
F0.029811274386599865
sg66
F0.03482682930916037
sg67
F0.020578855358768564
sg68
F0.01680601866590707
sg69
F0.006470512670140692
sg70
F1.1170500941114703e-05
sg71
F0.019012192601777226
sg72
F1.396312617639338e-06
sg73
F0.0003574560301156705
ssg69
(dp140
g1
F7.580581582218988e-06
sg3
F0.10709845659358987
sg4
F7.580581582218988e-06
sg5
F0.00040935140543982534
sg6
F7.580581582218988e-06
sg7
F7.580581582218988e-06
sg8
F0.0016828891112526153
sg9
F7.580581582218988e-06
sg10
F3.032232632887595e-05
sg11
F7.580581582218988e-06
sg12
F7.580581582218988e-06
sg13
F7.580581582218988e-06
sg14
F7.580581582218988e-06
sg15
F7.580581582218988e-06
sg16
F7.580581582218988e-06
sg17
F7.580581582218988e-06
sg18
F7.580581582218988e-06
sg19
F7.580581582218988e-06
sg20
F7.580581582218988e-06
sg21
F7.580581582218988e-06
sg22
F7.580581582218988e-06
sg23
F7.580581582218988e-06
sg24
F7.580581582218988e-06
sg25
F7.580581582218988e-06
sg26
F7.580581582218988e-06
sg27
F7.580581582218988e-06
sg28
F7.580581582218988e-06
sg29
F7.580581582218988e-06
sg30
F7.580581582218988e-06
sg31
F7.580581582218988e-06
sg32
F7.580581582218988e-06
sg33
F7.580581582218988e-06
sg34
F7.580581582218988e-06
sg35
F7.580581582218988e-06
sg36
F7.580581582218988e-06
sg37
F7.580581582218988e-06
sg38
F7.580581582218988e-06
sg39
F7.580581582218988e-06
sg40
F7.580581582218988e-06
sg41
F7.580581582218988e-06
sg42
F7.580581582218988e-06
sg43
F7.580581582218988e-06
sg44
F7.580581582218988e-06
sg45
F7.580581582218988e-06
sg46
F7.580581582218988e-06
sg47
F7.580581582218988e-06
sg48
F0.1962309348373207
sg49
F0.00030322326328875954
sg50
F0.0007428969950574609
sg51
F0.15750932411534613
sg52
F0.002289335637830134
sg53
F4.548348949331393e-05
sg54
F0.0005003183844264532
sg55
F0.17831043997695503
sg56
F0.16334637193365475
sg57
F0.0007883804845507747
sg58
F7.580581582218988e-06
sg59
F0.0006974135055641469
sg60
F0.0058522089814730584
sg61
F0.10700748961460323
sg62
F0.04137481427575124
sg63
F7.580581582218988e-06
sg64
F0.0008187028108796507
sg65
F0.015267291306589041
sg66
F0.015267291306589041
sg67
F0.0007277358318930229
sg68
F0.003017071469723157
sg69
F1.5161163164437976e-05
sg70
F7.580581582218988e-06
sg71
F0.0011219260741684102
sg72
F7.580581582218988e-06
sg73
F7.580581582218988e-06
ssg70
(dp141
g1
F1.2472560367192178e-05
sg3
F0.004140890041907803
sg4
F1.2472560367192178e-05
sg5
F0.0005238475354220714
sg6
F1.2472560367192178e-05
sg7
F1.2472560367192178e-05
sg8
F2.4945120734384356e-05
sg9
F1.2472560367192178e-05
sg10
F0.002319896228297745
sg11
F1.2472560367192178e-05
sg12
F1.2472560367192178e-05
sg13
F1.2472560367192178e-05
sg14
F1.2472560367192178e-05
sg15
F1.2472560367192178e-05
sg16
F1.2472560367192178e-05
sg17
F1.2472560367192178e-05
sg18
F1.2472560367192178e-05
sg19
F1.2472560367192178e-05
sg20
F1.2472560367192178e-05
sg21
F1.2472560367192178e-05
sg22
F1.2472560367192178e-05
sg23
F1.2472560367192178e-05
sg24
F1.2472560367192178e-05
sg25
F1.2472560367192178e-05
sg26
F1.2472560367192178e-05
sg27
F1.2472560367192178e-05
sg28
F1.2472560367192178e-05
sg29
F1.2472560367192178e-05
sg30
F1.2472560367192178e-05
sg31
F1.2472560367192178e-05
sg32
F1.2472560367192178e-05
sg33
F1.2472560367192178e-05
sg34
F1.2472560367192178e-05
sg35
F1.2472560367192178e-05
sg36
F1.2472560367192178e-05
sg37
F1.2472560367192178e-05
sg38
F1.2472560367192178e-05
sg39
F1.2472560367192178e-05
sg40
F1.2472560367192178e-05
sg41
F1.2472560367192178e-05
sg42
F1.2472560367192178e-05
sg43
F1.2472560367192178e-05
sg44
F1.2472560367192178e-05
sg45
F1.2472560367192178e-05
sg46
F1.2472560367192178e-05
sg47
F1.2472560367192178e-05
sg48
F0.09374376371981641
sg49
F2.4945120734384356e-05
sg50
F1.2472560367192178e-05
sg51
F0.6478996208341649
sg52
F0.00014967072440630612
sg53
F1.2472560367192178e-05
sg54
F1.2472560367192178e-05
sg55
F0.19305028936340052
sg56
F1.2472560367192178e-05
sg57
F1.2472560367192178e-05
sg58
F1.2472560367192178e-05
sg59
F1.2472560367192178e-05
sg60
F9.978048293753742e-05
sg61
F0.049391339054081024
sg62
F2.4945120734384356e-05
sg63
F1.2472560367192178e-05
sg64
F4.989024146876871e-05
sg65
F0.0009728597086409898
sg66
F0.000498902414687687
sg67
F0.001621432847734983
sg68
F2.4945120734384356e-05
sg69
F1.2472560367192178e-05
sg70
F2.4945120734384356e-05
sg71
F0.004140890041907803
sg72
F1.2472560367192178e-05
sg73
F2.4945120734384356e-05
ssg71
(dp142
g1
F7.541819388509284e-06
sg3
F0.7501244400199104
sg4
F7.541819388509284e-06
sg5
F0.00831108496613723
sg6
F7.541819388509284e-06
sg7
F7.541819388509284e-06
sg8
F0.0073004811680769865
sg9
F7.541819388509284e-06
sg10
F0.00010558547143912998
sg11
F7.541819388509284e-06
sg12
F7.541819388509284e-06
sg13
F7.541819388509284e-06
sg14
F7.541819388509284e-06
sg15
F7.541819388509284e-06
sg16
F7.541819388509284e-06
sg17
F7.541819388509284e-06
sg18
F7.541819388509284e-06
sg19
F7.541819388509284e-06
sg20
F7.541819388509284e-06
sg21
F7.541819388509284e-06
sg22
F7.541819388509284e-06
sg23
F7.541819388509284e-06
sg24
F7.541819388509284e-06
sg25
F7.541819388509284e-06
sg26
F7.541819388509284e-06
sg27
F7.541819388509284e-06
sg28
F7.541819388509284e-06
sg29
F7.541819388509284e-06
sg30
F7.541819388509284e-06
sg31
F7.541819388509284e-06
sg32
F7.541819388509284e-06
sg33
F7.541819388509284e-06
sg34
F7.541819388509284e-06
sg35
F7.541819388509284e-06
sg36
F7.541819388509284e-06
sg37
F7.541819388509284e-06
sg38
F7.541819388509284e-06
sg39
F7.541819388509284e-06
sg40
F7.541819388509284e-06
sg41
F7.541819388509284e-06
sg42
F7.541819388509284e-06
sg43
F7.541819388509284e-06
sg44
F7.541819388509284e-06
sg45
F7.541819388509284e-06
sg46
F7.541819388509284e-06
sg47
F7.541819388509284e-06
sg48
F0.007209979335414876
sg49
F0.004555258910659607
sg50
F0.0036502405840384933
sg51
F0.05065085901322835
sg52
F0.002292713094106822
sg53
F0.0011011056307223554
sg54
F0.0005731782735267056
sg55
F0.015204307887234716
sg56
F0.0005430109959726684
sg57
F0.00046759280208757563
sg58
F4.525091633105571e-05
sg59
F0.012157412854276966
sg60
F0.0075267357497322655
sg61
F0.04980617524171531
sg62
F0.006033455510807427
sg63
F7.541819388509284e-06
sg64
F0.010181456174487534
sg65
F0.044104559784002295
sg66
F0.005761950012821093
sg67
F0.00022625458165527853
sg68
F0.008748510490670769
sg69
F0.002820640451302472
sg70
F6.033455510807427e-05
sg71
F4.525091633105571e-05
sg72
F7.541819388509284e-06
sg73
F0.0007994328551819841
ssg72
(dp143
g1
F5.901794145420208e-05
sg3
F0.13515108593012276
sg4
F5.901794145420208e-05
sg5
F0.003186968838526912
sg6
F5.901794145420208e-05
sg7
F5.901794145420208e-05
sg8
F0.0084985835694051
sg9
F5.901794145420208e-05
sg10
F0.0008262511803588291
sg11
F5.901794145420208e-05
sg12
F5.901794145420208e-05
sg13
F5.901794145420208e-05
sg14
F5.901794145420208e-05
sg15
F5.901794145420208e-05
sg16
F5.901794145420208e-05
sg17
F5.901794145420208e-05
sg18
F5.901794145420208e-05
sg19
F5.901794145420208e-05
sg20
F5.901794145420208e-05
sg21
F5.901794145420208e-05
sg22
F5.901794145420208e-05
sg23
F5.901794145420208e-05
sg24
F5.901794145420208e-05
sg25
F5.901794145420208e-05
sg26
F5.901794145420208e-05
sg27
F5.901794145420208e-05
sg28
F5.901794145420208e-05
sg29
F5.901794145420208e-05
sg30
F5.901794145420208e-05
sg31
F5.901794145420208e-05
sg32
F5.901794145420208e-05
sg33
F5.901794145420208e-05
sg34
F5.901794145420208e-05
sg35
F5.901794145420208e-05
sg36
F5.901794145420208e-05
sg37
F5.901794145420208e-05
sg38
F5.901794145420208e-05
sg39
F5.901794145420208e-05
sg40
F5.901794145420208e-05
sg41
F5.901794145420208e-05
sg42
F5.901794145420208e-05
sg43
F5.901794145420208e-05
sg44
F5.901794145420208e-05
sg45
F5.901794145420208e-05
sg46
F5.901794145420208e-05
sg47
F5.901794145420208e-05
sg48
F0.09159584513692162
sg49
F0.09194995278564684
sg50
F0.00023607176581680832
sg51
F0.06716241737488196
sg52
F5.901794145420208e-05
sg53
F5.901794145420208e-05
sg54
F0.002124645892351275
sg55
F0.11437677053824363
sg56
F0.013692162417374882
sg57
F5.901794145420208e-05
sg58
F5.901794145420208e-05
sg59
F0.00011803588290840416
sg60
F0.002478753541076487
sg61
F0.014400377714825307
sg62
F0.00023607176581680832
sg63
F0.0005901794145420207
sg64
F0.26109537299339
sg65
F0.0003541076487252125
sg66
F0.0008262511803588291
sg67
F0.01392823418319169
sg68
F0.16005665722379603
sg69
F0.0017705382436260624
sg70
F0.00011803588290840416
sg71
F0.009206798866855524
sg72
F0.00047214353163361664
sg73
F5.901794145420208e-05
ssg73
(dp144
g1
F0.00013095861707700367
sg3
F0.059717129387113675
sg4
F0.00013095861707700367
sg5
F0.0010476689366160294
sg6
F0.00013095861707700367
sg7
F0.00013095861707700367
sg8
F0.002881089575694081
sg9
F0.00013095861707700367
sg10
F0.002881089575694081
sg11
F0.00013095861707700367
sg12
F0.00013095861707700367
sg13
F0.00013095861707700367
sg14
F0.00013095861707700367
sg15
F0.00013095861707700367
sg16
F0.00013095861707700367
sg17
F0.00013095861707700367
sg18
F0.00013095861707700367
sg19
F0.00013095861707700367
sg20
F0.00013095861707700367
sg21
F0.00013095861707700367
sg22
F0.00013095861707700367
sg23
F0.00013095861707700367
sg24
F0.00013095861707700367
sg25
F0.00013095861707700367
sg26
F0.00013095861707700367
sg27
F0.00013095861707700367
sg28
F0.00013095861707700367
sg29
F0.00013095861707700367
sg30
F0.00013095861707700367
sg31
F0.00013095861707700367
sg32
F0.00013095861707700367
sg33
F0.00013095861707700367
sg34
F0.00013095861707700367
sg35
F0.00013095861707700367
sg36
F0.00013095861707700367
sg37
F0.00013095861707700367
sg38
F0.00013095861707700367
sg39
F0.00013095861707700367
sg40
F0.00013095861707700367
sg41
F0.00013095861707700367
sg42
F0.00013095861707700367
sg43
F0.00013095861707700367
sg44
F0.00013095861707700367
sg45
F0.00013095861707700367
sg46
F0.00013095861707700367
sg47
F0.00013095861707700367
sg48
F0.1927710843373494
sg49
F0.00013095861707700367
sg50
F0.0013095861707700367
sg51
F0.4457831325301205
sg52
F0.00013095861707700367
sg53
F0.00995285489785228
sg54
F0.00026191723415400735
sg55
F0.1003143006809848
sg56
F0.0005238344683080147
sg57
F0.003143006809848088
sg58
F0.00013095861707700367
sg59
F0.000785751702462022
sg60
F0.021477213200628602
sg61
F0.047407019381875325
sg62
F0.00013095861707700367
sg63
F0.0005238344683080147
sg64
F0.00013095861707700367
sg65
F0.0005238344683080147
sg66
F0.0010476689366160294
sg67
F0.005762179151388162
sg68
F0.0005238344683080147
sg69
F0.0005238344683080147
sg70
F0.0013095861707700367
sg71
F0.021477213200628602
sg72
F0.00013095861707700367
sg73
F0.07438449449973808
ss.