(dp0
S'!'
p1
(dp2
I0
F0.0006242197253433209
sI17
F0.0006242197253433209
sI18
F0.0006242197253433209
sI23
F0.0006242197253433209
sI27
F0.0006242197253433209
sI34
F0.0006242197253433209
sI49
F0.0006242197253433209
sI50
F1.8535080374398929e-09
sI58
F7.793005310153818e-07
sI59
F9.729095268606515e-10
sI60
F0.0006242197253433209
sI64
F7.793005310153818e-07
sI65
F9.729095268606515e-10
sI68
F7.793005310153818e-07
sI69
F1.2146186352817124e-12
sI71
F0.0006242197253433209
sI72
F9.729095268606515e-10
sI73
F1.2146186352817124e-12
sI74
F7.793005310153818e-07
sI75
F0.0006242197253433209
sI76
F0.0006242197253433209
sI77
F7.793005310153818e-07
sI78
F7.793005310153818e-07
sI79
F0.0006242197253433209
sI80
F7.793005310153818e-07
sI81
F9.729095268606515e-10
sI82
F9.729095268606515e-10
sI84
F0.0006242197253433209
sI88
F1.2146186352817124e-12
sI89
F7.793005310153818e-07
sI90
F9.729095268606515e-10
sI91
F0.0006242197253433209
sI92
F0.0006242197253433209
sI93
F0.0006242197253433209
sI94
F0.0006242197253433209
sI95
F7.793005310153818e-07
sI97
F0.0006242197253433209
sI98
F0.0006242197253433209
sI99
F0.0006242197253433209
ssS' '
p3
(dp4
I0
F0.999961520078418
sI17
F5.063147576575044e-07
sI18
F5.063147576575044e-07
sI23
F5.063147576575044e-07
sI27
F5.063147576575044e-07
sI34
F5.063147576575044e-07
sI49
F5.063147576575044e-07
sI50
F5.257415862551806e-25
sI58
F5.127092676435549e-13
sI59
F5.19184537191406e-19
sI60
F5.063147576575044e-07
sI64
F5.127092676435549e-13
sI65
F5.19184537191406e-19
sI68
F5.127092676435549e-13
sI69
F5.257415862551806e-25
sI71
F5.063147576575044e-07
sI72
F5.19184537191406e-19
sI73
F5.257415862551806e-25
sI74
F5.127092676435549e-13
sI75
F5.063147576575044e-07
sI76
F5.063147576575044e-07
sI77
F5.127092676435549e-13
sI78
F5.127092676435549e-13
sI79
F5.063147576575044e-07
sI80
F5.127092676435549e-13
sI81
F5.19184537191406e-19
sI82
F5.19184537191406e-19
sI84
F5.063147576575044e-07
sI88
F5.257415862551806e-25
sI89
F5.127092676435549e-13
sI90
F5.19184537191406e-19
sI91
F5.063147576575044e-07
sI92
F5.063147576575044e-07
sI93
F5.063147576575044e-07
sI94
F5.063147576575044e-07
sI95
F5.127092676435549e-13
sI97
F5.063147576575044e-07
sI98
F5.063147576575044e-07
sI99
F5.063147576575044e-07
ssS'"'
p5
(dp6
I0
F0.01282051282051282
sI17
F0.01282051282051282
sI18
F0.01282051282051282
sI23
F0.01282051282051282
sI27
F0.01282051282051282
sI34
F0.01282051282051282
sI49
F0.01282051282051282
sI50
F2.1612826953442941e-07
sI58
F0.00032873109796186715
sI59
F8.429002511842747e-06
sI60
F0.01282051282051282
sI64
F0.00032873109796186715
sI65
F8.429002511842747e-06
sI68
F0.00032873109796186715
sI69
F2.1612826953442941e-07
sI71
F0.01282051282051282
sI72
F8.429002511842747e-06
sI73
F2.1612826953442941e-07
sI74
F0.00032873109796186715
sI75
F0.01282051282051282
sI76
F0.01282051282051282
sI77
F0.00032873109796186715
sI78
F0.00032873109796186715
sI79
F0.01282051282051282
sI80
F0.00032873109796186715
sI81
F8.429002511842747e-06
sI82
F8.429002511842747e-06
sI84
F0.01282051282051282
sI88
F2.1612826953442941e-07
sI89
F0.00032873109796186715
sI90
F8.429002511842747e-06
sI91
F0.01282051282051282
sI92
F0.01282051282051282
sI93
F0.01282051282051282
sI94
F0.01282051282051282
sI95
F0.00032873109796186715
sI97
F0.01282051282051282
sI98
F0.01282051282051282
sI99
F0.01282051282051282
ssS"'"
p7
(dp8
I0
F2.6614148081119923e-05
sI17
F0.9979773247458349
sI18
F2.6614148081119923e-05
sI23
F2.6614148081119923e-05
sI27
F2.6614148081119923e-05
sI34
F2.6614148081119923e-05
sI49
F2.6614148081119923e-05
sI50
F4.013657066074614e-18
sI58
F1.4166257561675585e-09
sI59
F7.540457530034377e-14
sI60
F2.6614148081119923e-05
sI64
F1.4166257561675585e-09
sI65
F7.540457530034377e-14
sI68
F1.4166257561675585e-09
sI69
F4.013657066074614e-18
sI71
F2.6614148081119923e-05
sI72
F7.540457530034377e-14
sI73
F4.013657066074614e-18
sI74
F1.4166257561675585e-09
sI75
F2.6614148081119923e-05
sI76
F2.6614148081119923e-05
sI77
F1.4166257561675585e-09
sI78
F1.4166257561675585e-09
sI79
F2.6614148081119923e-05
sI80
F1.4166257561675585e-09
sI81
F7.540457530034377e-14
sI82
F7.540457530034377e-14
sI84
F2.6614148081119923e-05
sI88
F4.013657066074614e-18
sI89
F1.4166257561675585e-09
sI90
F7.540457530034377e-14
sI91
F2.6614148081119923e-05
sI92
F2.6614148081119923e-05
sI93
F2.6614148081119923e-05
sI94
F2.6614148081119923e-05
sI95
F1.4166257561675585e-09
sI97
F2.6614148081119923e-05
sI98
F2.6614148081119923e-05
sI99
F2.6614148081119923e-05
ssS')'
p9
(dp10
I0
F0.00021920210434020167
sI17
F0.00021920210434020167
sI18
F0.00021920210434020167
sI23
F0.00021920210434020167
sI27
F0.00021920210434020167
sI34
F0.00021920210434020167
sI49
F0.00021920210434020167
sI50
F1.847008368779726e-14
sI58
F9.609912509434532e-08
sI59
F1.8899635036090886e-07
sI60
F0.00021920210434020167
sI64
F9.609912509434532e-08
sI65
F4.213026089186555e-11
sI68
F9.609912509434532e-08
sI69
F1.847008368779726e-14
sI71
F0.00021920210434020167
sI72
F4.213026089186555e-11
sI73
F1.847008368779726e-14
sI74
F9.609912509434532e-08
sI75
F0.00021920210434020167
sI76
F0.00021920210434020167
sI77
F9.609912509434532e-08
sI78
F9.609912509434532e-08
sI79
F0.00021920210434020167
sI80
F9.609912509434532e-08
sI81
F4.213026089186555e-11
sI82
F4.213026089186555e-11
sI84
F0.00021920210434020167
sI88
F1.847008368779726e-14
sI89
F9.609912509434532e-08
sI90
F4.213026089186555e-11
sI91
F0.00021920210434020167
sI92
F0.00021920210434020167
sI93
F0.00021920210434020167
sI94
F0.00021920210434020167
sI95
F9.609912509434532e-08
sI97
F0.00021920210434020167
sI98
F0.00021920210434020167
sI99
F0.00021920210434020167
ssS'('
p11
(dp12
I0
F0.00024142926122646064
sI17
F0.00024142926122646064
sI18
F0.00024142926122646064
sI23
F0.00024142926122646064
sI27
F0.00024142926122646064
sI34
F0.00024142926122646064
sI49
F0.00024142926122646064
sI50
F1.1051391979002191e-10
sI58
F1.1657617635270914e-07
sI59
F5.628980026688032e-11
sI60
F0.00024142926122646064
sI64
F1.1657617635270914e-07
sI65
F5.628980026688032e-11
sI68
F1.1657617635270914e-07
sI69
F2.7180009786035886e-14
sI71
F0.00024142926122646064
sI72
F5.628980026688032e-11
sI73
F2.7180009786035886e-14
sI74
F1.1657617635270914e-07
sI75
F0.00024142926122646064
sI76
F0.00024142926122646064
sI77
F1.1657617635270914e-07
sI78
F1.1657617635270914e-07
sI79
F0.00024142926122646064
sI80
F1.1657617635270914e-07
sI81
F5.628980026688032e-11
sI82
F5.628980026688032e-11
sI84
F0.00024142926122646064
sI88
F2.7180009786035886e-14
sI89
F1.1657617635270914e-07
sI90
F5.628980026688032e-11
sI91
F0.00024142926122646064
sI92
F0.00024142926122646064
sI93
F0.00024142926122646064
sI94
F0.00024142926122646064
sI95
F1.1657617635270914e-07
sI97
F0.00024142926122646064
sI98
F0.00024142926122646064
sI99
F0.00024142926122646064
ssS'-'
p13
(dp14
I0
F3.9556962025316456e-05
sI17
F3.9556962025316456e-05
sI18
F3.9556962025316456e-05
sI23
F3.9556962025316456e-05
sI27
F3.9556962025316456e-05
sI34
F0.9969936708860759
sI49
F3.9556962025316456e-05
sI50
F1.9587621733700632e-17
sI58
F3.1295064893446564e-09
sI59
F2.47587538713976e-13
sI60
F3.9556962025316456e-05
sI64
F3.1295064893446564e-09
sI65
F2.47587538713976e-13
sI68
F3.1295064893446564e-09
sI69
F1.9587621733700632e-17
sI71
F3.9556962025316456e-05
sI72
F2.47587538713976e-13
sI73
F1.9587621733700632e-17
sI74
F3.1295064893446564e-09
sI75
F3.9556962025316456e-05
sI76
F3.9556962025316456e-05
sI77
F3.1295064893446564e-09
sI78
F3.1295064893446564e-09
sI79
F3.9556962025316456e-05
sI80
F3.1295064893446564e-09
sI81
F2.47587538713976e-13
sI82
F2.47587538713976e-13
sI84
F3.9556962025316456e-05
sI88
F1.9587621733700632e-17
sI89
F3.1295064893446564e-09
sI90
F2.47587538713976e-13
sI91
F3.9556962025316456e-05
sI92
F3.9556962025316456e-05
sI93
F3.9556962025316456e-05
sI94
F3.9556962025316456e-05
sI95
F3.1295064893446564e-09
sI97
F3.9556962025316456e-05
sI98
F3.9556962025316456e-05
sI99
F3.9556962025316456e-05
ssS','
p15
(dp16
I0
F1.0418620157946281e-05
sI17
F1.0418620157946281e-05
sI18
F1.0418620157946281e-05
sI23
F1.0418620157946281e-05
sI27
F0.9992081848679961
sI34
F1.0418620157946281e-05
sI49
F1.0418620157946281e-05
sI50
F9.426073160942728e-20
sI58
F2.170952919911292e-10
sI59
F4.523666770668025e-15
sI60
F1.0418620157946281e-05
sI64
F2.170952919911292e-10
sI65
F4.523666770668025e-15
sI68
F2.170952919911292e-10
sI69
F9.426073160942728e-20
sI71
F1.0418620157946281e-05
sI72
F4.523666770668025e-15
sI73
F9.426073160942728e-20
sI74
F2.170952919911292e-10
sI75
F1.0418620157946281e-05
sI76
F1.0418620157946281e-05
sI77
F2.170952919911292e-10
sI78
F2.170952919911292e-10
sI79
F1.0418620157946281e-05
sI80
F2.170952919911292e-10
sI81
F4.523666770668025e-15
sI82
F4.523666770668025e-15
sI84
F1.0418620157946281e-05
sI88
F9.426073160942728e-20
sI89
F2.170952919911292e-10
sI90
F4.523666770668025e-15
sI91
F1.0418620157946281e-05
sI92
F1.0418620157946281e-05
sI93
F1.0418620157946281e-05
sI94
F1.0418620157946281e-05
sI95
F2.170952919911292e-10
sI97
F1.0418620157946281e-05
sI98
F1.0418620157946281e-05
sI99
F1.0418620157946281e-05
ssS'.'
p17
(dp18
I0
F1.1364152916041639e-05
sI17
F1.1364152916041639e-05
sI18
F0.9991363243783808
sI23
F1.1364152916041639e-05
sI27
F1.1364152916041639e-05
sI34
F1.1364152916041639e-05
sI49
F1.1364152916041639e-05
sI50
F1.3342532299664333e-19
sI58
F2.5828794299835536e-10
sI59
F5.870447361206313e-15
sI60
F1.1364152916041639e-05
sI64
F2.5828794299835536e-10
sI65
F5.870447361206313e-15
sI68
F2.5828794299835536e-10
sI69
F1.3342532299664333e-19
sI71
F1.1364152916041639e-05
sI72
F5.870447361206313e-15
sI73
F1.3342532299664333e-19
sI74
F2.5828794299835536e-10
sI75
F1.1364152916041639e-05
sI76
F1.1364152916041639e-05
sI77
F2.5828794299835536e-10
sI78
F2.5828794299835536e-10
sI79
F1.1364152916041639e-05
sI80
F2.5828794299835536e-10
sI81
F5.870447361206313e-15
sI82
F5.870447361206313e-15
sI84
F1.1364152916041639e-05
sI88
F1.3342532299664333e-19
sI89
F2.5828794299835536e-10
sI90
F5.870447361206313e-15
sI91
F1.1364152916041639e-05
sI92
F1.1364152916041639e-05
sI93
F1.1364152916041639e-05
sI94
F1.1364152916041639e-05
sI95
F2.5828794299835536e-10
sI97
F1.1364152916041639e-05
sI98
F1.1364152916041639e-05
sI99
F1.1364152916041639e-05
ssS'1'
p19
(dp20
I0
F0.00010239606799098914
sI17
F0.00010239606799098914
sI18
F0.00010239606799098914
sI23
F0.00010239606799098914
sI27
F0.00010239606799098914
sI34
F0.00010239606799098914
sI49
F0.00010239606799098914
sI50
F8.52210506778108e-12
sI58
F2.0969909480030544e-08
sI59
F4.294472553764191e-12
sI60
F0.00010239606799098914
sI64
F2.0969909480030544e-08
sI65
F4.294472553764191e-12
sI68
F2.0969909480030544e-08
sI69
F8.794742072013498e-16
sI71
F0.00010239606799098914
sI72
F4.294472553764191e-12
sI73
F8.794742072013498e-16
sI74
F2.0969909480030544e-08
sI75
F0.00010239606799098914
sI76
F0.00010239606799098914
sI77
F2.0969909480030544e-08
sI78
F2.0969909480030544e-08
sI79
F0.00010239606799098914
sI80
F2.0969909480030544e-08
sI81
F4.294472553764191e-12
sI82
F4.294472553764191e-12
sI84
F0.00010239606799098914
sI88
F8.794742072013498e-16
sI89
F2.0969909480030544e-08
sI90
F4.294472553764191e-12
sI91
F0.00010239606799098914
sI92
F0.00010239606799098914
sI93
F0.00010239606799098914
sI94
F0.00010239606799098914
sI95
F2.0969909480030544e-08
sI97
F0.00010239606799098914
sI98
F0.00010239606799098914
sI99
F0.00010239606799098914
ssS'0'
p21
(dp22
I0
F0.00011410314924691921
sI17
F0.00011410314924691921
sI18
F0.00011410314924691921
sI23
F0.00011410314924691921
sI27
F0.00011410314924691921
sI34
F0.00011410314924691921
sI49
F0.00011410314924691921
sI50
F1.356065013908473e-15
sI58
F2.6039057336129442e-08
sI59
F5.9422768909469285e-12
sI60
F0.00011410314924691921
sI64
F2.6039057336129442e-08
sI65
F5.9422768909469285e-12
sI68
F2.6039057336129442e-08
sI69
F1.356065013908473e-15
sI71
F0.00011410314924691921
sI72
F5.9422768909469285e-12
sI73
F1.356065013908473e-15
sI74
F2.6039057336129442e-08
sI75
F0.9913281606572342
sI76
F0.00011410314924691921
sI77
F2.6039057336129442e-08
sI78
F2.6039057336129442e-08
sI79
F0.00011410314924691921
sI80
F2.6039057336129442e-08
sI81
F5.9422768909469285e-12
sI82
F5.9422768909469285e-12
sI84
F0.00011410314924691921
sI88
F1.356065013908473e-15
sI89
F2.6039057336129442e-08
sI90
F5.9422768909469285e-12
sI91
F0.00011410314924691921
sI92
F0.00011410314924691921
sI93
F0.00011410314924691921
sI94
F0.00011410314924691921
sI95
F2.6039057336129442e-08
sI97
F0.00011410314924691921
sI98
F0.00011410314924691921
sI99
F0.00011410314924691921
ssS'3'
p23
(dp24
I0
F0.0003295978905735003
sI17
F0.0003295978905735003
sI18
F0.0003295978905735003
sI23
F0.0003295978905735003
sI27
F0.0003295978905735003
sI34
F0.0003295978905735003
sI49
F0.0003295978905735003
sI50
F9.441210510327134e-14
sI58
F2.1726953894100218e-07
sI59
F1.4322316344166261e-10
sI60
F0.0003295978905735003
sI64
F0.0006426832961874845
sI65
F1.4322316344166261e-10
sI68
F2.1726953894100218e-07
sI69
F9.441210510327134e-14
sI71
F0.0003295978905735003
sI72
F1.4322316344166261e-10
sI73
F9.441210510327134e-14
sI74
F2.1726953894100218e-07
sI75
F0.0003295978905735003
sI76
F0.0003295978905735003
sI77
F2.1726953894100218e-07
sI78
F2.1726953894100218e-07
sI79
F0.0003295978905735003
sI80
F2.1726953894100218e-07
sI81
F1.4322316344166261e-10
sI82
F1.4322316344166261e-10
sI84
F0.0003295978905735003
sI88
F9.441210510327134e-14
sI89
F2.1726953894100218e-07
sI90
F1.4322316344166261e-10
sI91
F0.0003295978905735003
sI92
F0.0003295978905735003
sI93
F0.0003295978905735003
sI94
F0.0003295978905735003
sI95
F2.1726953894100218e-07
sI97
F0.0003295978905735003
sI98
F0.0003295978905735003
sI99
F0.0003295978905735003
ssS'2'
p25
(dp26
I0
F0.00021123785382340515
sI17
F0.00021123785382340515
sI18
F0.00021123785382340515
sI23
F0.00021123785382340515
sI27
F0.00021123785382340515
sI34
F0.00021123785382340515
sI49
F0.00021123785382340515
sI50
F1.5928576755882145e-14
sI58
F8.924286177583657e-08
sI59
F3.7702941181173034e-11
sI60
F0.00021123785382340515
sI64
F8.924286177583657e-08
sI65
F1.75620300021904e-07
sI68
F8.924286177583657e-08
sI69
F1.5928576755882145e-14
sI71
F0.00021123785382340515
sI72
F3.7702941181173034e-11
sI73
F1.5928576755882145e-14
sI74
F8.924286177583657e-08
sI75
F0.00021123785382340515
sI76
F0.00021123785382340515
sI77
F8.924286177583657e-08
sI78
F8.924286177583657e-08
sI79
F0.00021123785382340515
sI80
F8.924286177583657e-08
sI81
F3.7702941181173034e-11
sI82
F3.7702941181173034e-11
sI84
F0.00021123785382340515
sI88
F1.5928576755882145e-14
sI89
F8.924286177583657e-08
sI90
F3.7702941181173034e-11
sI91
F0.00021123785382340515
sI92
F0.00021123785382340515
sI93
F0.00021123785382340515
sI94
F0.00021123785382340515
sI95
F8.924286177583657e-08
sI97
F0.00021123785382340515
sI98
F0.00021123785382340515
sI99
F0.00021123785382340515
ssS'5'
p27
(dp28
I0
F0.00024248302618816683
sI17
F0.00024248302618816683
sI18
F0.00024248302618816683
sI23
F0.00024248302618816683
sI27
F0.00024248302618816683
sI34
F0.00024248302618816683
sI49
F0.00024248302618816683
sI50
F2.7657655355827353e-14
sI58
F1.175960359787424e-07
sI59
F5.7030085343716e-11
sI60
F0.00024248302618816683
sI64
F1.175960359787424e-07
sI65
F5.7030085343716e-11
sI68
F1.175960359787424e-07
sI69
F2.7657655355827353e-14
sI71
F0.9815712900096993
sI72
F5.7030085343716e-11
sI73
F2.7657655355827353e-14
sI74
F1.175960359787424e-07
sI75
F0.00024248302618816683
sI76
F0.00024248302618816683
sI77
F1.175960359787424e-07
sI78
F1.175960359787424e-07
sI79
F0.00024248302618816683
sI80
F1.175960359787424e-07
sI81
F5.7030085343716e-11
sI82
F5.7030085343716e-11
sI84
F0.00024248302618816683
sI88
F2.7657655355827353e-14
sI89
F1.175960359787424e-07
sI90
F5.7030085343716e-11
sI91
F0.00024248302618816683
sI92
F0.00024248302618816683
sI93
F0.00024248302618816683
sI94
F0.00024248302618816683
sI95
F1.175960359787424e-07
sI97
F0.00024248302618816683
sI98
F0.00024248302618816683
sI99
F0.00024248302618816683
ssS'4'
p29
(dp30
I0
F0.0003687315634218289
sI17
F0.0003687315634218289
sI18
F0.0003687315634218289
sI23
F0.0003687315634218289
sI27
F0.0003687315634218289
sI34
F0.0003687315634218289
sI49
F0.0003687315634218289
sI50
F1.478874246912077e-13
sI58
F2.719259317270125e-07
sI59
F2.0053534788127765e-10
sI60
F0.0003687315634218289
sI64
F2.719259317270125e-07
sI65
F2.0053534788127765e-10
sI68
F2.719259317270125e-07
sI69
F1.478874246912077e-13
sI71
F0.0003687315634218289
sI72
F2.0053534788127765e-10
sI73
F1.478874246912077e-13
sI74
F2.719259317270125e-07
sI75
F0.0003687315634218289
sI76
F0.0003687315634218289
sI77
F2.719259317270125e-07
sI78
F0.0007167967560324049
sI79
F0.0003687315634218289
sI80
F2.719259317270125e-07
sI81
F2.0053534788127765e-10
sI82
F2.0053534788127765e-10
sI84
F0.0003687315634218289
sI88
F1.478874246912077e-13
sI89
F2.719259317270125e-07
sI90
F2.0053534788127765e-10
sI91
F0.0003687315634218289
sI92
F0.0003687315634218289
sI93
F0.0003687315634218289
sI94
F0.0003687315634218289
sI95
F2.719259317270125e-07
sI97
F0.0003687315634218289
sI98
F0.0003687315634218289
sI99
F0.0003687315634218289
ssS'7'
p31
(dp32
I0
F0.00048638132295719845
sI17
F0.00048638132295719845
sI18
F0.00048638132295719845
sI23
F0.00048638132295719845
sI27
F0.00048638132295719845
sI34
F0.00048638132295719845
sI49
F0.00048638132295719845
sI50
F8.864673326181268e-10
sI58
F4.7313358264318915e-07
sI59
F4.6024667572294667e-10
sI60
F0.00048638132295719845
sI64
F4.7313358264318915e-07
sI65
F4.6024667572294667e-10
sI68
F4.7313358264318915e-07
sI69
F4.4771077404955904e-13
sI71
F0.00048638132295719845
sI72
F4.6024667572294667e-10
sI73
F4.4771077404955904e-13
sI74
F4.7313358264318915e-07
sI75
F0.00048638132295719845
sI76
F0.00048638132295719845
sI77
F4.7313358264318915e-07
sI78
F4.7313358264318915e-07
sI79
F0.00048638132295719845
sI80
F4.7313358264318915e-07
sI81
F4.6024667572294667e-10
sI82
F4.6024667572294667e-10
sI84
F0.00048638132295719845
sI88
F4.4771077404955904e-13
sI89
F4.7313358264318915e-07
sI90
F4.6024667572294667e-10
sI91
F0.00048638132295719845
sI92
F0.00048638132295719845
sI93
F0.00048638132295719845
sI94
F0.00048638132295719845
sI95
F4.7313358264318915e-07
sI97
F0.00048638132295719845
sI98
F0.00048638132295719845
sI99
F0.00048638132295719845
ssS'6'
p33
(dp34
I0
F0.0003526093088857546
sI17
F0.0003526093088857546
sI18
F0.0003526093088857546
sI23
F0.0003526093088857546
sI27
F0.0003526093088857546
sI34
F0.0003526093088857546
sI49
F0.0003526093088857546
sI50
F1.2367020507328652e-13
sI58
F2.48666649425779e-07
sI59
F1.753643507939203e-10
sI60
F0.0003526093088857546
sI64
F2.48666649425779e-07
sI65
F1.753643507939203e-10
sI68
F2.48666649425779e-07
sI69
F1.2367020507328652e-13
sI71
F0.0003526093088857546
sI72
F1.753643507939203e-10
sI73
F1.2367020507328652e-13
sI74
F2.48666649425779e-07
sI75
F0.0003526093088857546
sI76
F0.0003526093088857546
sI77
F2.48666649425779e-07
sI78
F2.48666649425779e-07
sI79
F0.0003526093088857546
sI80
F2.48666649425779e-07
sI81
F1.753643507939203e-10
sI82
F4.840056081912201e-07
sI84
F0.0003526093088857546
sI88
F1.2367020507328652e-13
sI89
F2.48666649425779e-07
sI90
F1.753643507939203e-10
sI91
F0.0003526093088857546
sI92
F0.0003526093088857546
sI93
F0.0003526093088857546
sI94
F0.0003526093088857546
sI95
F2.48666649425779e-07
sI97
F0.0003526093088857546
sI98
F0.0003526093088857546
sI99
F0.0003526093088857546
ssS'9'
p35
(dp36
I0
F0.00023596035865974517
sI17
F0.00023596035865974517
sI18
F0.00023596035865974517
sI23
F0.00023596035865974517
sI27
F0.00023596035865974517
sI34
F0.00023596035865974517
sI49
F0.00023596035865974517
sI50
F2.4799685739035e-14
sI58
F1.1135458171767115e-07
sI59
F5.255053408101517e-11
sI60
F0.00023596035865974517
sI64
F1.1135458171767115e-07
sI65
F5.255053408101517e-11
sI68
F1.1135458171767115e-07
sI69
F2.4799685739035e-14
sI71
F0.00023596035865974517
sI72
F5.255053408101517e-11
sI73
F2.4799685739035e-14
sI74
F1.1135458171767115e-07
sI75
F0.00023596035865974517
sI76
F0.00023596035865974517
sI77
F0.00046345776910894734
sI78
F1.1135458171767115e-07
sI79
F0.00023596035865974517
sI80
F1.1135458171767115e-07
sI81
F5.255053408101517e-11
sI82
F5.255053408101517e-11
sI84
F0.00023596035865974517
sI88
F2.4799685739035e-14
sI89
F1.1135458171767115e-07
sI90
F5.255053408101517e-11
sI91
F0.00023596035865974517
sI92
F0.00023596035865974517
sI93
F0.00023596035865974517
sI94
F0.00023596035865974517
sI95
F1.1135458171767115e-07
sI97
F0.00023596035865974517
sI98
F0.00023596035865974517
sI99
F0.00023596035865974517
ssS'8'
p37
(dp38
I0
F0.00040617384240454913
sI17
F0.00040617384240454913
sI18
F0.00040617384240454913
sI23
F0.00040617384240454913
sI27
F0.00040617384240454913
sI34
F0.00040617384240454913
sI49
F0.00040617384240454913
sI50
F2.1773978643197962e-13
sI58
F3.2995438050735105e-07
sI59
F2.680376770977669e-10
sI60
F0.00040617384240454913
sI64
F3.2995438050735105e-07
sI65
F2.680376770977669e-10
sI68
F3.2995438050735105e-07
sI69
F2.1773978643197962e-13
sI71
F0.00040617384240454913
sI72
F2.680376770977669e-10
sI73
F2.1773978643197962e-13
sI74
F3.2995438050735105e-07
sI75
F0.00040617384240454913
sI76
F0.00040617384240454913
sI77
F3.2995438050735105e-07
sI78
F3.2995438050735105e-07
sI79
F0.00040617384240454913
sI80
F3.2995438050735105e-07
sI81
F2.680376770977669e-10
sI82
F6.395378975552718e-07
sI84
F0.00040617384240454913
sI88
F2.1773978643197962e-13
sI89
F3.2995438050735105e-07
sI90
F2.680376770977669e-10
sI91
F0.00040617384240454913
sI92
F0.00040617384240454913
sI93
F0.00040617384240454913
sI94
F0.00040617384240454913
sI95
F3.2995438050735105e-07
sI97
F0.00040617384240454913
sI98
F0.00040617384240454913
sI99
F0.00040617384240454913
ssS'?'
p39
(dp40
I0
F0.00017458100558659218
sI17
F0.00017458100558659218
sI18
F0.00017458100558659218
sI23
F0.00017458100558659218
sI27
F0.00017458100558659218
sI34
F0.00017458100558659218
sI49
F0.986731843575419
sI50
F7.431525114215412e-15
sI58
F6.095705502325146e-08
sI59
F2.128388792711294e-11
sI60
F0.00017458100558659218
sI64
F6.095705502325146e-08
sI65
F2.128388792711294e-11
sI68
F6.095705502325146e-08
sI69
F7.431525114215412e-15
sI71
F0.00017458100558659218
sI72
F2.128388792711294e-11
sI73
F7.431525114215412e-15
sI74
F6.095705502325146e-08
sI75
F0.00017458100558659218
sI76
F0.00017458100558659218
sI77
F6.095705502325146e-08
sI78
F6.095705502325146e-08
sI79
F0.00017458100558659218
sI80
F6.095705502325146e-08
sI81
F2.128388792711294e-11
sI82
F2.128388792711294e-11
sI84
F0.00017458100558659218
sI88
F7.431525114215412e-15
sI89
F6.095705502325146e-08
sI90
F2.128388792711294e-11
sI91
F0.00017458100558659218
sI92
F0.00017458100558659218
sI93
F0.00017458100558659218
sI94
F0.00017458100558659218
sI95
F6.095705502325146e-08
sI97
F0.00017458100558659218
sI98
F0.00017458100558659218
sI99
F0.00017458100558659218
ssS'A'
p41
(dp42
I0
F8.410428931875525e-05
sI17
F8.410428931875525e-05
sI18
F8.410428931875525e-05
sI23
F8.410428931875525e-05
sI27
F8.410428931875525e-05
sI34
F8.410428931875525e-05
sI49
F8.410428931875525e-05
sI50
F4.002787809935844e-16
sI58
F1.414706296362578e-08
sI59
F2.3796573530068593e-12
sI60
F8.410428931875525e-05
sI64
F1.414706296362578e-08
sI65
F2.3796573530068593e-12
sI68
F1.414706296362578e-08
sI69
F4.002787809935844e-16
sI71
F8.410428931875525e-05
sI72
F2.3796573530068593e-12
sI73
F4.002787809935844e-16
sI74
F1.414706296362578e-08
sI75
F8.410428931875525e-05
sI76
F8.410428931875525e-05
sI77
F1.414706296362578e-08
sI78
F1.414706296362578e-08
sI79
F8.410428931875525e-05
sI80
F1.414706296362578e-08
sI81
F2.3796573530068593e-12
sI82
F2.3796573530068593e-12
sI84
F8.410428931875525e-05
sI88
F4.002787809935844e-16
sI89
F1.414706296362578e-08
sI90
F2.8113271968423038e-08
sI91
F8.410428931875525e-05
sI92
F8.410428931875525e-05
sI93
F8.410428931875525e-05
sI94
F8.410428931875525e-05
sI95
F1.414706296362578e-08
sI97
F8.410428931875525e-05
sI98
F8.410428931875525e-05
sI99
F8.410428931875525e-05
ssS'C'
p43
(dp44
I0
F8.134049129656744e-05
sI17
F8.134049129656744e-05
sI18
F8.134049129656744e-05
sI23
F8.134049129656744e-05
sI27
F8.134049129656744e-05
sI34
F8.134049129656744e-05
sI49
F8.134049129656744e-05
sI50
F3.5020081451469864e-16
sI58
F1.3232551048733926e-08
sI59
F2.1526844068218524e-12
sI60
F8.134049129656744e-05
sI64
F1.3232551048733926e-08
sI65
F2.1526844068218524e-12
sI68
F0.00016167530871343108
sI69
F3.5020081451469864e-16
sI71
F8.134049129656744e-05
sI72
F2.1526844068218524e-12
sI73
F3.5020081451469864e-16
sI74
F1.3232551048733926e-08
sI75
F8.134049129656744e-05
sI76
F8.134049129656744e-05
sI77
F1.3232551048733926e-08
sI78
F1.3232551048733926e-08
sI79
F8.134049129656744e-05
sI80
F1.3232551048733926e-08
sI81
F2.1526844068218524e-12
sI82
F2.1526844068218524e-12
sI84
F8.134049129656744e-05
sI88
F3.5020081451469864e-16
sI89
F1.3232551048733926e-08
sI90
F2.1526844068218524e-12
sI91
F8.134049129656744e-05
sI92
F8.134049129656744e-05
sI93
F8.134049129656744e-05
sI94
F8.134049129656744e-05
sI95
F1.3232551048733926e-08
sI97
F8.134049129656744e-05
sI98
F8.134049129656744e-05
sI99
F8.134049129656744e-05
ssS'B'
p45
(dp46
I0
F0.00013877324451845685
sI17
F0.00013877324451845685
sI18
F0.00013877324451845685
sI23
F0.00013877324451845685
sI27
F0.00013877324451845685
sI34
F0.00013877324451845685
sI49
F0.00013877324451845685
sI50
F2.9669686391231496e-15
sI58
F3.851602678835883e-08
sI59
F1.0689988006760707e-11
sI60
F0.00013877324451845685
sI64
F3.851602678835883e-08
sI65
F1.0689988006760707e-11
sI68
F3.851602678835883e-08
sI69
F2.9669686391231496e-15
sI71
F0.00013877324451845685
sI72
F1.0689988006760707e-11
sI73
F2.9669686391231496e-15
sI74
F3.851602678835883e-08
sI75
F0.00013877324451845685
sI76
F0.00013877324451845685
sI77
F3.851602678835883e-08
sI78
F3.851602678835883e-08
sI79
F0.00013877324451845685
sI80
F3.851602678835883e-08
sI81
F1.0689988006760707e-11
sI82
F1.0689988006760707e-11
sI84
F0.00013877324451845685
sI88
F2.9669686391231496e-15
sI89
F3.851602678835883e-08
sI90
F1.0689988006760707e-11
sI91
F0.00013877324451845685
sI92
F0.00013877324451845685
sI93
F0.00013877324451845685
sI94
F0.00013877324451845685
sI95
F3.851602678835883e-08
sI97
F0.9894532334165973
sI98
F0.00013877324451845685
sI99
F0.00013877324451845685
ssS'E'
p47
(dp48
I0
F0.00024224806201550387
sI17
F0.00024224806201550387
sI18
F0.00024224806201550387
sI23
F0.00024224806201550387
sI27
F0.00024224806201550387
sI34
F0.00024224806201550387
sI49
F0.00024224806201550387
sI50
F2.75506108549044e-14
sI58
F1.1736824710053482e-07
sI59
F5.686446080452268e-11
sI60
F0.00024224806201550387
sI64
F1.1736824710053482e-07
sI65
F5.686446080452268e-11
sI68
F1.1736824710053482e-07
sI69
F2.75506108549044e-14
sI71
F0.00024224806201550387
sI72
F5.686446080452268e-11
sI73
F2.75506108549044e-14
sI74
F1.1736824710053482e-07
sI75
F0.00024224806201550387
sI76
F0.00024224806201550387
sI77
F1.1736824710053482e-07
sI78
F1.1736824710053482e-07
sI79
F0.00024224806201550387
sI80
F1.1736824710053482e-07
sI81
F5.686446080452268e-11
sI82
F5.686446080452268e-11
sI84
F0.00024224806201550387
sI88
F2.75506108549044e-14
sI89
F1.1736824710053482e-07
sI90
F5.686446080452268e-11
sI91
F0.00024224806201550387
sI92
F0.00024224806201550387
sI93
F0.9815891472868217
sI94
F0.00024224806201550387
sI95
F1.1736824710053482e-07
sI97
F0.00024224806201550387
sI98
F0.00024224806201550387
sI99
F0.00024224806201550387
ssS'D'
p49
(dp50
I0
F0.00018070112034694616
sI17
F0.00018070112034694616
sI18
F0.00018070112034694616
sI23
F0.00018070112034694616
sI27
F0.00018070112034694616
sI34
F0.00018070112034694616
sI49
F0.00018070112034694616
sI50
F8.529692360004048e-15
sI58
F6.530578978928304e-08
sI59
F2.3601658760131202e-11
sI60
F0.00018070112034694616
sI64
F6.530578978928304e-08
sI65
F2.3601658760131202e-11
sI68
F6.530578978928304e-08
sI69
F8.529692360004048e-15
sI71
F0.00018070112034694616
sI72
F2.3601658760131202e-11
sI73
F4.6555060900902086e-11
sI74
F6.530578978928304e-08
sI75
F0.00018070112034694616
sI76
F0.00018070112034694616
sI77
F6.530578978928304e-08
sI78
F6.530578978928304e-08
sI79
F0.00018070112034694616
sI80
F6.530578978928304e-08
sI81
F2.3601658760131202e-11
sI82
F2.3601658760131202e-11
sI84
F0.00018070112034694616
sI88
F8.529692360004048e-15
sI89
F6.530578978928304e-08
sI90
F2.3601658760131202e-11
sI91
F0.00018070112034694616
sI92
F0.00018070112034694616
sI93
F0.00018070112034694616
sI94
F0.00018070112034694616
sI95
F6.530578978928304e-08
sI97
F0.00018070112034694616
sI98
F0.00018070112034694616
sI99
F0.00018070112034694616
ssS'G'
p51
(dp52
I0
F0.0001918649270913277
sI17
F0.0001918649270913277
sI18
F0.0001918649270913277
sI23
F0.0001918649270913277
sI27
F0.0001918649270913277
sI34
F0.0001918649270913277
sI49
F0.0001918649270913277
sI50
F1.0841075246909544e-14
sI58
F7.362430049552099e-08
sI59
F2.8251842093446274e-11
sI60
F0.0001918649270913277
sI64
F7.362430049552099e-08
sI65
F2.8251842093446274e-11
sI68
F7.362430049552099e-08
sI69
F1.0841075246909544e-14
sI71
F0.0001918649270913277
sI72
F2.8251842093446274e-11
sI73
F1.0841075246909544e-14
sI74
F7.362430049552099e-08
sI75
F0.0001918649270913277
sI76
F0.0001918649270913277
sI77
F7.362430049552099e-08
sI78
F7.362430049552099e-08
sI79
F0.0001918649270913277
sI80
F7.362430049552099e-08
sI81
F2.8251842093446274e-11
sI82
F2.8251842093446274e-11
sI84
F0.0001918649270913277
sI88
F1.0841075246909544e-14
sI89
F7.362430049552099e-08
sI90
F2.8251842093446274e-11
sI91
F0.985418265541059
sI92
F0.0001918649270913277
sI93
F0.0001918649270913277
sI94
F0.0001918649270913277
sI95
F7.362430049552099e-08
sI97
F0.0001918649270913277
sI98
F0.0001918649270913277
sI99
F0.0001918649270913277
ssS'F'
p53
(dp54
I0
F0.0001976284584980237
sI17
F0.0001976284584980237
sI18
F0.0001976284584980237
sI23
F0.0001976284584980237
sI27
F0.0001976284584980237
sI34
F0.0001976284584980237
sI49
F0.0001976284584980237
sI50
F1.220359874652161e-14
sI58
F7.811401521661017e-08
sI59
F3.087510482869967e-11
sI60
F0.0001976284584980237
sI64
F7.811401521661017e-08
sI65
F3.087510482869967e-11
sI68
F7.811401521661017e-08
sI69
F1.220359874652161e-14
sI71
F0.0001976284584980237
sI72
F3.087510482869967e-11
sI73
F1.220359874652161e-14
sI74
F7.811401521661017e-08
sI75
F0.0001976284584980237
sI76
F0.0001976284584980237
sI77
F7.811401521661017e-08
sI78
F7.811401521661017e-08
sI79
F0.0001976284584980237
sI80
F0.00038932025183958507
sI81
F3.087510482869967e-11
sI82
F3.087510482869967e-11
sI84
F0.0001976284584980237
sI88
F1.220359874652161e-14
sI89
F7.811401521661017e-08
sI90
F3.087510482869967e-11
sI91
F0.0001976284584980237
sI92
F0.0001976284584980237
sI93
F0.0001976284584980237
sI94
F0.0001976284584980237
sI95
F7.811401521661017e-08
sI97
F0.0001976284584980237
sI98
F0.0001976284584980237
sI99
F0.0001976284584980237
ssS'I'
p55
(dp56
I0
F0.00012677484787018255
sI17
F0.00012677484787018255
sI18
F0.00012677484787018255
sI23
F0.00012677484787018255
sI27
F0.00012677484787018255
sI34
F0.00012677484787018255
sI49
F0.00012677484787018255
sI50
F2.0664379986787555e-15
sI58
F3.214372410501586e-08
sI59
F8.150031466789011e-12
sI60
F0.00012677484787018255
sI64
F3.214372410501586e-08
sI65
F8.150031466789011e-12
sI68
F3.214372410501586e-08
sI69
F2.0664379986787555e-15
sI71
F0.00012677484787018255
sI72
F8.150031466789011e-12
sI73
F2.0664379986787555e-15
sI74
F0.0002511067727083839
sI75
F0.00012677484787018255
sI76
F0.00012677484787018255
sI77
F3.214372410501586e-08
sI78
F3.214372410501586e-08
sI79
F0.00012677484787018255
sI80
F3.214372410501586e-08
sI81
F8.150031466789011e-12
sI82
F8.150031466789011e-12
sI84
F0.00012677484787018255
sI88
F2.0664379986787555e-15
sI89
F3.214372410501586e-08
sI90
F8.150031466789011e-12
sI91
F0.00012677484787018255
sI92
F0.00012677484787018255
sI93
F0.00012677484787018255
sI94
F0.00012677484787018255
sI95
F3.214372410501586e-08
sI97
F0.00012677484787018255
sI98
F0.00012677484787018255
sI99
F0.00012677484787018255
ssS'H'
p57
(dp58
I0
F0.00017158544955387783
sI17
F0.00017158544955387783
sI18
F0.00017158544955387783
sI23
F0.00017158544955387783
sI27
F0.00017158544955387783
sI34
F0.00017158544955387783
sI49
F0.00017158544955387783
sI50
F6.934446703134879e-15
sI58
F5.8883132997212704e-08
sI59
F2.0206977692935038e-11
sI60
F0.00017158544955387783
sI64
F5.8883132997212704e-08
sI65
F2.0206977692935038e-11
sI68
F5.8883132997212704e-08
sI69
F6.934446703134879e-15
sI71
F0.00017158544955387783
sI72
F2.0206977692935038e-11
sI73
F6.934446703134879e-15
sI74
F5.8883132997212704e-08
sI75
F0.00017158544955387783
sI76
F0.00017158544955387783
sI77
F5.8883132997212704e-08
sI78
F5.8883132997212704e-08
sI79
F0.00017158544955387783
sI80
F5.8883132997212704e-08
sI81
F2.0206977692935038e-11
sI82
F2.0206977692935038e-11
sI84
F0.9869595058339052
sI88
F6.934446703134879e-15
sI89
F5.8883132997212704e-08
sI90
F2.0206977692935038e-11
sI91
F0.00017158544955387783
sI92
F0.00017158544955387783
sI93
F0.00017158544955387783
sI94
F0.00017158544955387783
sI95
F5.8883132997212704e-08
sI97
F0.00017158544955387783
sI98
F0.00017158544955387783
sI99
F0.00017158544955387783
ssS'K'
p59
(dp60
I0
F0.0004095004095004095
sI17
F0.0004095004095004095
sI18
F0.0004095004095004095
sI23
F0.0004095004095004095
sI27
F0.0004095004095004095
sI34
F0.0004095004095004095
sI49
F0.0004095004095004095
sI50
F2.2496105940338785e-13
sI58
F3.353811707620062e-07
sI59
F2.7467745353153657e-10
sI60
F0.0004095004095004095
sI64
F3.353811707620062e-07
sI65
F2.7467745353153657e-10
sI68
F3.353811707620062e-07
sI69
F2.2496105940338785e-13
sI71
F0.0004095004095004095
sI72
F2.7467745353153657e-10
sI73
F2.2496105940338785e-13
sI74
F3.353811707620062e-07
sI75
F0.0004095004095004095
sI76
F0.0004095004095004095
sI77
F3.353811707620062e-07
sI78
F3.353811707620062e-07
sI79
F0.0004095004095004095
sI80
F3.353811707620062e-07
sI81
F2.7467745353153657e-10
sI82
F2.7467745353153657e-10
sI84
F0.0004095004095004095
sI88
F5.322578665484157e-10
sI89
F3.353811707620062e-07
sI90
F2.7467745353153657e-10
sI91
F0.0004095004095004095
sI92
F0.0004095004095004095
sI93
F0.0004095004095004095
sI94
F0.0004095004095004095
sI95
F3.353811707620062e-07
sI97
F0.0004095004095004095
sI98
F0.0004095004095004095
sI99
F0.0004095004095004095
ssS'J'
p61
(dp62
I0
F0.00022202486678507994
sI17
F0.00022202486678507994
sI18
F0.00022202486678507994
sI23
F0.00022202486678507994
sI27
F0.00022202486678507994
sI34
F0.00022202486678507994
sI49
F0.00022202486678507994
sI50
F1.9440008908967634e-14
sI58
F9.859008294186499e-08
sI59
F4.377890006299511e-11
sI60
F0.00022202486678507994
sI64
F9.859008294186499e-08
sI65
F4.377890006299511e-11
sI68
F9.859008294186499e-08
sI69
F8.608035944890868e-11
sI71
F0.00022202486678507994
sI72
F4.377890006299511e-11
sI73
F1.9440008908967634e-14
sI74
F9.859008294186499e-08
sI75
F0.00022202486678507994
sI76
F0.00022202486678507994
sI77
F9.859008294186499e-08
sI78
F9.859008294186499e-08
sI79
F0.00022202486678507994
sI80
F9.859008294186499e-08
sI81
F4.377890006299511e-11
sI82
F4.377890006299511e-11
sI84
F0.00022202486678507994
sI88
F1.9440008908967634e-14
sI89
F9.859008294186499e-08
sI90
F4.377890006299511e-11
sI91
F0.00022202486678507994
sI92
F0.00022202486678507994
sI93
F0.00022202486678507994
sI94
F0.00022202486678507994
sI95
F9.859008294186499e-08
sI97
F0.00022202486678507994
sI98
F0.00022202486678507994
sI99
F0.00022202486678507994
ssS'M'
p63
(dp64
I0
F0.00010438413361169103
sI17
F0.00010438413361169103
sI18
F0.00010438413361169103
sI23
F0.00010438413361169103
sI27
F0.00010438413361169103
sI34
F0.00010438413361169103
sI49
F0.00010438413361169103
sI50
F9.497907828037154e-16
sI58
F2.179209469972673e-08
sI59
F4.549497849629797e-12
sI60
F0.00010438413361169103
sI64
F2.179209469972673e-08
sI65
F4.549497849629797e-12
sI68
F2.179209469972673e-08
sI69
F9.497907828037154e-16
sI71
F0.00010438413361169103
sI72
F4.549497849629797e-12
sI73
F9.497907828037154e-16
sI74
F2.179209469972673e-08
sI75
F0.00010438413361169103
sI76
F0.00010438413361169103
sI77
F2.179209469972673e-08
sI78
F2.179209469972673e-08
sI79
F0.00010438413361169103
sI80
F2.179209469972673e-08
sI81
F4.549497849629797e-12
sI82
F4.549497849629797e-12
sI84
F0.00010438413361169103
sI88
F9.497907828037154e-16
sI89
F2.179209469972673e-08
sI90
F4.549497849629797e-12
sI91
F0.00010438413361169103
sI92
F0.00010438413361169103
sI93
F0.00010438413361169103
sI94
F0.00010438413361169103
sI95
F2.179209469972673e-08
sI97
F0.00010438413361169103
sI98
F0.9920668058455114
sI99
F0.00010438413361169103
ssS'L'
p65
(dp66
I0
F0.00022634676324128565
sI17
F0.00022634676324128565
sI18
F0.00022634676324128565
sI23
F0.00022634676324128565
sI27
F0.00022634676324128565
sI34
F0.00022634676324128565
sI49
F0.00022634676324128565
sI50
F2.0998445279437988e-14
sI58
F1.0246571445961324e-07
sI59
F2.014061259319333e-07
sI60
F0.00022634676324128565
sI64
F1.0246571445961324e-07
sI65
F4.6385565622278514e-11
sI68
F1.0246571445961324e-07
sI69
F2.0998445279437988e-14
sI71
F0.00022634676324128565
sI72
F4.6385565622278514e-11
sI73
F2.0998445279437988e-14
sI74
F1.0246571445961324e-07
sI75
F0.00022634676324128565
sI76
F0.00022634676324128565
sI77
F1.0246571445961324e-07
sI78
F1.0246571445961324e-07
sI79
F0.00022634676324128565
sI80
F1.0246571445961324e-07
sI81
F4.6385565622278514e-11
sI82
F4.6385565622278514e-11
sI84
F0.00022634676324128565
sI88
F2.0998445279437988e-14
sI89
F1.0246571445961324e-07
sI90
F4.6385565622278514e-11
sI91
F0.00022634676324128565
sI92
F0.00022634676324128565
sI93
F0.00022634676324128565
sI94
F0.00022634676324128565
sI95
F1.0246571445961324e-07
sI97
F0.00022634676324128565
sI98
F0.00022634676324128565
sI99
F0.00022634676324128565
ssS'O'
p67
(dp68
I0
F0.00035285815102328866
sI17
F0.00035285815102328866
sI18
F0.00035285815102328866
sI23
F0.00035285815102328866
sI27
F0.00035285815102328866
sI34
F0.00035285815102328866
sI49
F0.00035285815102328866
sI50
F1.2401967911928794e-13
sI58
F2.4901774948714795e-07
sI59
F1.75735885312031e-10
sI60
F0.00035285815102328866
sI64
F2.4901774948714795e-07
sI65
F1.75735885312031e-10
sI68
F2.4901774948714795e-07
sI69
F1.2401967911928794e-13
sI71
F0.00035285815102328866
sI72
F1.75735885312031e-10
sI73
F1.2401967911928794e-13
sI74
F2.4901774948714795e-07
sI75
F0.00035285815102328866
sI76
F0.9731827805222301
sI77
F2.4901774948714795e-07
sI78
F2.4901774948714795e-07
sI79
F0.00035285815102328866
sI80
F2.4901774948714795e-07
sI81
F1.75735885312031e-10
sI82
F1.75735885312031e-10
sI84
F0.00035285815102328866
sI88
F1.2401967911928794e-13
sI89
F2.4901774948714795e-07
sI90
F1.75735885312031e-10
sI91
F0.00035285815102328866
sI92
F0.00035285815102328866
sI93
F0.00035285815102328866
sI94
F0.00035285815102328866
sI95
F2.4901774948714795e-07
sI97
F0.00035285815102328866
sI98
F0.00035285815102328866
sI99
F0.00035285815102328866
ssS'N'
p69
(dp70
I0
F0.00021551724137931034
sI17
F0.00021551724137931034
sI18
F0.00021551724137931034
sI23
F0.00021551724137931034
sI27
F0.00021551724137931034
sI34
F0.00021551724137931034
sI49
F0.00021551724137931034
sI50
F1.7259096808764834e-14
sI58
F9.289536266349584e-08
sI59
F4.0041104596334416e-11
sI60
F0.00021551724137931034
sI64
F9.289536266349584e-08
sI65
F4.0041104596334416e-11
sI68
F9.289536266349584e-08
sI69
F1.7259096808764834e-14
sI71
F0.00021551724137931034
sI72
F4.0041104596334416e-11
sI73
F1.7259096808764834e-14
sI74
F9.289536266349584e-08
sI75
F0.00021551724137931034
sI76
F0.00021551724137931034
sI77
F9.289536266349584e-08
sI78
F9.289536266349584e-08
sI79
F0.00021551724137931034
sI80
F9.289536266349584e-08
sI81
F4.0041104596334416e-11
sI82
F4.0041104596334416e-11
sI84
F0.00021551724137931034
sI88
F1.7259096808764834e-14
sI89
F0.00042397443519619503
sI90
F4.0041104596334416e-11
sI91
F0.00021551724137931034
sI92
F0.00021551724137931034
sI93
F0.00021551724137931034
sI94
F0.00021551724137931034
sI95
F9.289536266349584e-08
sI97
F0.00021551724137931034
sI98
F0.00021551724137931034
sI99
F0.00021551724137931034
ssS'Q'
p71
(dp72
I0
F0.0023923444976076554
sI17
F0.0023923444976076554
sI18
F0.0023923444976076554
sI23
F0.0023923444976076554
sI27
F0.0023923444976076554
sI34
F0.0023923444976076554
sI49
F0.0023923444976076554
sI50
F2.6205041987287955e-10
sI58
F1.1446624390467251e-05
sI59
F5.476853775343182e-08
sI60
F0.0023923444976076554
sI64
F1.1446624390467251e-05
sI65
F5.476853775343182e-08
sI68
F1.1446624390467251e-05
sI69
F2.6205041987287955e-10
sI71
F0.0023923444976076554
sI72
F5.476853775343182e-08
sI73
F2.6205041987287955e-10
sI74
F1.1446624390467251e-05
sI75
F0.0023923444976076554
sI76
F0.0023923444976076554
sI77
F1.1446624390467251e-05
sI78
F1.1446624390467251e-05
sI79
F0.0023923444976076554
sI80
F1.1446624390467251e-05
sI81
F5.476853775343182e-08
sI82
F5.476853775343182e-08
sI84
F0.0023923444976076554
sI88
F2.6205041987287955e-10
sI89
F1.1446624390467251e-05
sI90
F1.8730839911673684e-05
sI91
F0.0023923444976076554
sI92
F0.0023923444976076554
sI93
F0.0023923444976076554
sI94
F0.0023923444976076554
sI95
F1.1446624390467251e-05
sI97
F0.0023923444976076554
sI98
F0.0023923444976076554
sI99
F0.0023923444976076554
ssS'P'
p73
(dp74
I0
F0.0001339764201500536
sI17
F0.0001339764201500536
sI18
F0.0001339764201500536
sI23
F0.0001339764201500536
sI27
F0.0001339764201500536
sI34
F0.0001339764201500536
sI49
F0.0001339764201500536
sI50
F2.5775284288807336e-15
sI58
F3.589936231244737e-08
sI59
F9.619336096582897e-12
sI60
F0.0001339764201500536
sI64
F3.589936231244737e-08
sI65
F9.619336096582897e-12
sI68
F3.589936231244737e-08
sI69
F2.5775284288807336e-15
sI71
F0.0001339764201500536
sI72
F9.619336096582897e-12
sI73
F2.5775284288807336e-15
sI74
F3.589936231244737e-08
sI75
F0.0001339764201500536
sI76
F0.0001339764201500536
sI77
F3.589936231244737e-08
sI78
F3.589936231244737e-08
sI79
F0.0001339764201500536
sI80
F3.589936231244737e-08
sI81
F9.619336096582897e-12
sI82
F9.619336096582897e-12
sI84
F0.0001339764201500536
sI88
F2.5775284288807336e-15
sI89
F3.589936231244737e-08
sI90
F7.106765508155444e-08
sI91
F0.0001339764201500536
sI92
F0.0001339764201500536
sI93
F0.0001339764201500536
sI94
F0.0001339764201500536
sI95
F3.589936231244737e-08
sI97
F0.0001339764201500536
sI98
F0.0001339764201500536
sI99
F0.0001339764201500536
ssS'S'
p75
(dp76
I0
F7.737542556484061e-05
sI17
F7.737542556484061e-05
sI18
F7.737542556484061e-05
sI23
F7.737542556484061e-05
sI27
F7.737542556484061e-05
sI34
F7.737542556484061e-05
sI49
F7.737542556484061e-05
sI50
F2.867491832756904e-16
sI58
F1.1973912962680379e-08
sI59
F1.8529732223275113e-12
sI60
F7.737542556484061e-05
sI64
F1.1973912962680379e-08
sI65
F1.8529732223275113e-12
sI68
F1.1973912962680379e-08
sI69
F2.867491832756904e-16
sI71
F7.737542556484061e-05
sI72
F1.8529732223275113e-12
sI73
F2.867491832756904e-16
sI74
F1.1973912962680379e-08
sI75
F7.737542556484061e-05
sI76
F7.737542556484061e-05
sI77
F1.1973912962680379e-08
sI78
F1.1973912962680379e-08
sI79
F7.737542556484061e-05
sI80
F1.1973912962680379e-08
sI81
F1.8529732223275113e-12
sI82
F2.380699996046387e-08
sI84
F7.737542556484061e-05
sI88
F2.867491832756904e-16
sI89
F1.1973912962680379e-08
sI90
F1.8529732223275113e-12
sI91
F7.737542556484061e-05
sI92
F7.737542556484061e-05
sI93
F7.737542556484061e-05
sI94
F7.737542556484061e-05
sI95
F1.1973912962680379e-08
sI97
F7.737542556484061e-05
sI98
F7.737542556484061e-05
sI99
F7.737542556484061e-05
ssS'R'
p77
(dp78
I0
F0.00018677624206200972
sI17
F0.00018677624206200972
sI18
F0.00018677624206200972
sI23
F0.00018677624206200972
sI27
F0.00018677624206200972
sI34
F0.00018677624206200972
sI49
F0.00018677624206200972
sI50
F9.735909305533265e-15
sI58
F6.97707291976129e-08
sI59
F2.606302921091255e-11
sI60
F0.00018677624206200972
sI64
F6.97707291976129e-08
sI65
F2.606302921091255e-11
sI68
F6.97707291976129e-08
sI69
F9.735909305533265e-15
sI71
F0.00018677624206200972
sI72
F2.606302921091255e-11
sI73
F9.735909305533265e-15
sI74
F6.97707291976129e-08
sI75
F0.00018677624206200972
sI76
F0.00018677624206200972
sI77
F6.97707291976129e-08
sI78
F6.97707291976129e-08
sI79
F0.00018677624206200972
sI80
F6.97707291976129e-08
sI81
F2.606302921091255e-11
sI82
F2.606302921091255e-11
sI84
F0.00018677624206200972
sI88
F9.735909305533265e-15
sI89
F6.97707291976129e-08
sI90
F2.606302921091255e-11
sI91
F0.00018677624206200972
sI92
F0.00018677624206200972
sI93
F0.00018677624206200972
sI94
F0.00018677624206200972
sI95
F0.0003682499087050008
sI97
F0.00018677624206200972
sI98
F0.00018677624206200972
sI99
F0.00018677624206200972
ssS'U'
p79
(dp80
I0
F0.00037965072133637056
sI17
F0.00037965072133637056
sI18
F0.00037965072133637056
sI23
F0.00037965072133637056
sI27
F0.00037965072133637056
sI34
F0.00037965072133637056
sI49
F0.00037965072133637056
sI50
F1.6619842525519215e-13
sI58
F2.88269340422453e-07
sI59
F2.1888332606108806e-10
sI60
F0.00037965072133637056
sI64
F2.88269340422453e-07
sI65
F2.1888332606108806e-10
sI68
F0.0007373929728006347
sI69
F1.6619842525519215e-13
sI71
F0.00037965072133637056
sI72
F2.1888332606108806e-10
sI73
F1.6619842525519215e-13
sI74
F2.88269340422453e-07
sI75
F0.00037965072133637056
sI76
F0.00037965072133637056
sI77
F2.88269340422453e-07
sI78
F2.88269340422453e-07
sI79
F0.00037965072133637056
sI80
F2.88269340422453e-07
sI81
F2.1888332606108806e-10
sI82
F2.1888332606108806e-10
sI84
F0.00037965072133637056
sI88
F1.6619842525519215e-13
sI89
F2.88269340422453e-07
sI90
F2.1888332606108806e-10
sI91
F0.00037965072133637056
sI92
F0.00037965072133637056
sI93
F0.00037965072133637056
sI94
F0.00037965072133637056
sI95
F2.88269340422453e-07
sI97
F0.00037965072133637056
sI98
F0.00037965072133637056
sI99
F0.00037965072133637056
ssS'T'
p81
(dp82
I0
F0.00016249593760155997
sI17
F0.00016249593760155997
sI18
F0.00016249593760155997
sI23
F0.00016249593760155997
sI27
F0.00016249593760155997
sI34
F0.00016249593760155997
sI49
F0.00016249593760155997
sI50
F5.577762515331509e-15
sI58
F5.280985947402014e-08
sI59
F1.7162775259675053e-11
sI60
F0.00016249593760155997
sI64
F5.280985947402014e-08
sI65
F1.7162775259675053e-11
sI68
F5.280985947402014e-08
sI69
F5.577762515331509e-15
sI71
F0.00016249593760155997
sI72
F1.7162775259675053e-11
sI73
F5.577762515331509e-15
sI74
F5.280985947402014e-08
sI75
F0.00016249593760155997
sI76
F0.00016249593760155997
sI77
F5.280985947402014e-08
sI78
F5.280985947402014e-08
sI79
F0.00016249593760155997
sI80
F5.280985947402014e-08
sI81
F1.7162775259675053e-11
sI82
F1.7162775259675053e-11
sI84
F0.00016249593760155997
sI88
F3.390164056818491e-11
sI89
F5.280985947402014e-08
sI90
F1.7162775259675053e-11
sI91
F0.00016249593760155997
sI92
F0.00016249593760155997
sI93
F0.00016249593760155997
sI94
F0.00016249593760155997
sI95
F5.280985947402014e-08
sI97
F0.00016249593760155997
sI98
F0.00016249593760155997
sI99
F0.00016249593760155997
ssS'W'
p83
(dp84
I0
F0.00018477457501847746
sI17
F0.00018477457501847746
sI18
F0.00018477457501847746
sI23
F0.00018477457501847746
sI27
F0.00018477457501847746
sI34
F0.00018477457501847746
sI49
F0.00018477457501847746
sI50
F9.325214607067635e-15
sI58
F6.82832871465179e-08
sI59
F2.523403072672502e-11
sI60
F0.00018477457501847746
sI64
F6.82832871465179e-08
sI65
F2.523403072672502e-11
sI68
F6.82832871465179e-08
sI69
F9.325214607067635e-15
sI71
F0.00018477457501847746
sI72
F2.523403072672502e-11
sI73
F9.325214607067635e-15
sI74
F6.82832871465179e-08
sI75
F0.00018477457501847746
sI76
F0.00018477457501847746
sI77
F6.82832871465179e-08
sI78
F6.82832871465179e-08
sI79
F0.00018477457501847746
sI80
F6.82832871465179e-08
sI81
F2.523403072672502e-11
sI82
F2.523403072672502e-11
sI84
F0.00018477457501847746
sI88
F9.325214607067635e-15
sI89
F6.82832871465179e-08
sI90
F2.523403072672502e-11
sI91
F0.00018477457501847746
sI92
F0.00018477457501847746
sI93
F0.00018477457501847746
sI94
F0.00018477457501847746
sI95
F0.00036435962021381956
sI97
F0.00018477457501847746
sI98
F0.00018477457501847746
sI99
F0.00018477457501847746
ssS'V'
p85
(dp86
I0
F0.0005841121495327102
sI17
F0.0005841121495327102
sI18
F0.0005841121495327102
sI23
F0.0005841121495327102
sI27
F0.0005841121495327102
sI34
F0.0005841121495327102
sI49
F0.0005841121495327102
sI50
F9.312685693939515e-13
sI58
F6.823740064634465e-07
sI59
F7.971658954012226e-10
sI60
F0.0005841121495327102
sI64
F6.823740064634465e-07
sI65
F7.971658954012226e-10
sI68
F6.823740064634465e-07
sI69
F1.5235553795285051e-09
sI71
F0.0005841121495327102
sI72
F7.971658954012226e-10
sI73
F9.312685693939515e-13
sI74
F6.823740064634465e-07
sI75
F0.0005841121495327102
sI76
F0.0005841121495327102
sI77
F6.823740064634465e-07
sI78
F6.823740064634465e-07
sI79
F0.0005841121495327102
sI80
F6.823740064634465e-07
sI81
F7.971658954012226e-10
sI82
F7.971658954012226e-10
sI84
F0.0005841121495327102
sI88
F9.312685693939515e-13
sI89
F6.823740064634465e-07
sI90
F7.971658954012226e-10
sI91
F0.0005841121495327102
sI92
F0.0005841121495327102
sI93
F0.0005841121495327102
sI94
F0.0005841121495327102
sI95
F6.823740064634465e-07
sI97
F0.0005841121495327102
sI98
F0.0005841121495327102
sI99
F0.0005841121495327102
ssS'Y'
p87
(dp88
I0
F0.0006510416666666666
sI17
F0.0006510416666666666
sI18
F0.0006510416666666666
sI23
F0.0006510416666666666
sI27
F0.0006510416666666666
sI34
F0.0006510416666666666
sI49
F0.0006510416666666666
sI50
F1.4372261953942569e-12
sI58
F8.477105034722222e-07
sI59
F1.1037897180627893e-09
sI60
F0.0006510416666666666
sI64
F8.477105034722222e-07
sI65
F1.1037897180627893e-09
sI68
F8.477105034722222e-07
sI69
F1.4372261953942569e-12
sI71
F0.0006510416666666666
sI72
F1.1037897180627893e-09
sI73
F2.0983502452756154e-09
sI74
F8.477105034722222e-07
sI75
F0.0006510416666666666
sI76
F0.0006510416666666666
sI77
F8.477105034722222e-07
sI78
F8.477105034722222e-07
sI79
F0.0006510416666666666
sI80
F8.477105034722222e-07
sI81
F1.1037897180627893e-09
sI82
F1.1037897180627893e-09
sI84
F0.0006510416666666666
sI88
F1.4372261953942569e-12
sI89
F8.477105034722222e-07
sI90
F1.1037897180627893e-09
sI91
F0.0006510416666666666
sI92
F0.0006510416666666666
sI93
F0.0006510416666666666
sI94
F0.0006510416666666666
sI95
F8.477105034722222e-07
sI97
F0.0006510416666666666
sI98
F0.0006510416666666666
sI99
F0.0006510416666666666
ssS'X'
p89
(dp90
I0
F0.005681818181818182
sI17
F0.005681818181818182
sI18
F0.005681818181818182
sI23
F0.005681818181818182
sI27
F0.005681818181818182
sI34
F0.005681818181818182
sI49
F0.005681818181818182
sI50
F8.337566593811899e-09
sI58
F6.456611570247934e-05
sI59
F7.337058602554471e-07
sI60
F0.005681818181818182
sI64
F6.456611570247934e-05
sI65
F7.337058602554471e-07
sI68
F6.456611570247934e-05
sI69
F8.337566593811899e-09
sI71
F0.005681818181818182
sI72
F7.337058602554471e-07
sI73
F8.337566593811899e-09
sI74
F6.456611570247934e-05
sI75
F0.005681818181818182
sI76
F0.005681818181818182
sI77
F6.456611570247934e-05
sI78
F6.456611570247934e-05
sI79
F0.005681818181818182
sI80
F6.456611570247934e-05
sI81
F7.337058602554471e-05
sI82
F7.337058602554471e-07
sI84
F0.005681818181818182
sI88
F8.337566593811899e-09
sI89
F6.456611570247934e-05
sI90
F7.337058602554471e-07
sI91
F0.005681818181818182
sI92
F0.005681818181818182
sI93
F0.005681818181818182
sI94
F0.005681818181818182
sI95
F6.456611570247934e-05
sI97
F0.005681818181818182
sI98
F0.005681818181818182
sI99
F0.005681818181818182
ssS'Z'
p91
(dp92
I0
F0.0038461538461538464
sI17
F0.0038461538461538464
sI18
F0.0038461538461538464
sI23
F0.0038461538461538464
sI27
F0.0038461538461538464
sI34
F0.0038461538461538464
sI49
F0.0038461538461538464
sI50
F1.7506389832288787e-09
sI58
F2.958579881656805e-05
sI59
F2.2758306781975424e-07
sI60
F0.0038461538461538464
sI64
F2.958579881656805e-05
sI65
F2.2758306781975424e-07
sI68
F2.958579881656805e-05
sI69
F1.7506389832288787e-09
sI71
F0.0038461538461538464
sI72
F2.2758306781975424e-07
sI73
F1.7506389832288787e-09
sI74
F2.958579881656805e-05
sI75
F0.0038461538461538464
sI76
F0.0038461538461538464
sI77
F2.958579881656805e-05
sI78
F0.005443786982248521
sI79
F0.0038461538461538464
sI80
F2.958579881656805e-05
sI81
F2.2758306781975424e-07
sI82
F2.2758306781975424e-07
sI84
F0.0038461538461538464
sI88
F1.7506389832288787e-09
sI89
F2.958579881656805e-05
sI90
F2.2758306781975424e-07
sI91
F0.0038461538461538464
sI92
F0.0038461538461538464
sI93
F0.0038461538461538464
sI94
F0.0038461538461538464
sI95
F2.958579881656805e-05
sI97
F0.0038461538461538464
sI98
F0.0038461538461538464
sI99
F0.0038461538461538464
ssS'a'
p93
(dp94
I0
F1.6008606226707477e-06
sI17
F1.6008606226707477e-06
sI18
F1.6008606226707477e-06
sI23
F1.6008606226707477e-06
sI27
F1.6008606226707477e-06
sI34
F1.6008606226707477e-06
sI49
F1.6008606226707477e-06
sI50
F5.2541694581040836e-23
sI58
F5.125509466435548e-12
sI59
F1.6410452551885647e-17
sI60
F1.6008606226707477e-06
sI64
F5.125509466435548e-12
sI65
F1.6410452551885647e-17
sI68
F5.125509466435548e-12
sI69
F5.2541694581040836e-23
sI71
F1.6008606226707477e-06
sI72
F1.0249771738477155e-11
sI73
F5.2541694581040836e-23
sI74
F5.125509466435548e-12
sI75
F1.6008606226707477e-06
sI76
F1.6008606226707477e-06
sI77
F5.125509466435548e-12
sI78
F5.125509466435548e-12
sI79
F1.6008606226707477e-06
sI80
F5.125509466435548e-12
sI81
F1.6410452551885647e-17
sI82
F1.6410452551885647e-17
sI84
F1.6008606226707477e-06
sI88
F5.2541694581040836e-23
sI89
F5.125509466435548e-12
sI90
F1.6410452551885647e-17
sI91
F1.6008606226707477e-06
sI92
F1.6008606226707477e-06
sI93
F1.6008606226707477e-06
sI94
F1.6008606226707477e-06
sI95
F5.125509466435548e-12
sI97
F1.6008606226707477e-06
sI98
F1.6008606226707477e-06
sI99
F1.6008606226707477e-06
ssS'c'
p95
(dp96
I0
F4.090715711620905e-06
sI17
F4.090715711620905e-06
sI18
F4.090715711620905e-06
sI23
F4.090715711620905e-06
sI27
F4.090715711620905e-06
sI34
F4.090715711620905e-06
sI49
F4.090715711620905e-06
sI50
F2.2402020084526213e-21
sI58
F8.178887862076749e-06
sI59
F2.73815411089147e-16
sI60
F4.090715711620905e-06
sI64
F3.346791006660426e-11
sI65
F2.73815411089147e-16
sI68
F3.346791006660426e-11
sI69
F2.2402020084526213e-21
sI71
F4.090715711620905e-06
sI72
F2.73815411089147e-16
sI73
F2.2402020084526213e-21
sI74
F3.346791006660426e-11
sI75
F4.090715711620905e-06
sI76
F4.090715711620905e-06
sI77
F3.346791006660426e-11
sI78
F3.346791006660426e-11
sI79
F4.090715711620905e-06
sI80
F3.346791006660426e-11
sI81
F2.73815411089147e-16
sI82
F2.73815411089147e-16
sI84
F4.090715711620905e-06
sI88
F2.2402020084526213e-21
sI89
F3.346791006660426e-11
sI90
F2.73815411089147e-16
sI91
F4.090715711620905e-06
sI92
F4.090715711620905e-06
sI93
F4.090715711620905e-06
sI94
F4.090715711620905e-06
sI95
F3.346791006660426e-11
sI97
F4.090715711620905e-06
sI98
F4.090715711620905e-06
sI99
F4.090715711620905e-06
ssS'b'
p97
(dp98
I0
F9.047317470370035e-06
sI17
F9.047317470370035e-06
sI18
F9.047317470370035e-06
sI23
F9.047317470370035e-06
sI27
F9.047317470370035e-06
sI34
F9.047317470370035e-06
sI49
F9.047317470370035e-06
sI50
F5.360055751033006e-20
sI58
F1.6370790681932572e-10
sI59
F2.9622348108083907e-15
sI60
F9.047317470370035e-06
sI64
F1.6370790681932572e-10
sI65
F2.9622348108083907e-15
sI68
F1.6370790681932572e-10
sI69
F5.360055751033006e-20
sI71
F9.047317470370035e-06
sI72
F2.9622348108083907e-15
sI73
F5.360055751033006e-20
sI74
F1.6370790681932572e-10
sI75
F9.047317470370035e-06
sI76
F9.047317470370035e-06
sI77
F1.6370790681932572e-10
sI78
F1.6370790681932572e-10
sI79
F9.047317470370035e-06
sI80
F1.6370790681932572e-10
sI81
F2.9622348108083907e-15
sI82
F2.9622348108083907e-15
sI84
F9.047317470370035e-06
sI88
F5.360055751033006e-20
sI89
F1.80821931398218e-05
sI90
F2.9622348108083907e-15
sI91
F9.047317470370035e-06
sI92
F9.047317470370035e-06
sI93
F9.047317470370035e-06
sI94
F9.047317470370035e-06
sI95
F1.6370790681932572e-10
sI97
F9.047317470370035e-06
sI98
F9.047317470370035e-06
sI99
F9.047317470370035e-06
ssS'e'
p99
(dp100
I0
F1.0042943626948833e-06
sI17
F1.0042943626948833e-06
sI18
F1.0042943626948833e-06
sI23
F1.0042943626948833e-06
sI27
F1.0042943626948833e-06
sI34
F1.0042943626948833e-06
sI49
F1.0042943626948833e-06
sI50
F8.138307337633512e-24
sI58
F2.0172143338814436e-12
sI59
F4.0517539677288956e-18
sI60
F1.0042943626948833e-06
sI64
F2.0172143338814436e-12
sI65
F4.0517539677288956e-18
sI68
F2.0172143338814436e-12
sI69
F8.138307337633512e-24
sI71
F1.0042943626948833e-06
sI72
F4.0517539677288956e-18
sI73
F8.138307337633512e-24
sI74
F2.0172143338814436e-12
sI75
F1.0042943626948833e-06
sI76
F1.0042943626948833e-06
sI77
F2.0172143338814436e-12
sI78
F2.0172143338814436e-12
sI79
F1.0042943626948833e-06
sI80
F2.0172143338814436e-12
sI81
F4.0517539677288956e-18
sI82
F4.0517539677288956e-18
sI84
F1.0042943626948833e-06
sI88
F8.102889424100133e-18
sI89
F2.0172143338814436e-12
sI90
F4.0517539677288956e-18
sI91
F1.0042943626948833e-06
sI92
F1.0042943626948833e-06
sI93
F1.0042943626948833e-06
sI94
F1.0042943626948833e-06
sI95
F2.0172143338814436e-12
sI97
F1.0042943626948833e-06
sI98
F1.0042943626948833e-06
sI99
F1.0042943626948833e-06
ssS'd'
p101
(dp102
I0
F3.352262441922053e-06
sI17
F3.352262441922053e-06
sI18
F3.352262441922053e-06
sI23
F3.352262441922053e-06
sI27
F3.352262441922053e-06
sI34
F3.352262441922053e-06
sI49
F3.352262441922053e-06
sI50
F1.0102806438317175e-21
sI58
F2.2475326959042414e-11
sI59
F1.5068638886943216e-16
sI60
F3.352262441922053e-06
sI64
F2.2475326959042414e-11
sI65
F1.5068638886943216e-16
sI68
F2.2475326959042414e-11
sI69
F1.0102806438317175e-21
sI71
F3.352262441922053e-06
sI72
F1.5068638886943216e-16
sI73
F1.0102806438317175e-21
sI74
F2.2475326959042414e-11
sI75
F3.352262441922053e-06
sI76
F3.352262441922053e-06
sI77
F2.2475326959042414e-11
sI78
F2.2475326959042414e-11
sI79
F3.352262441922053e-06
sI80
F2.2475326959042414e-11
sI81
F1.5068638886943216e-16
sI82
F1.5068638886943216e-16
sI84
F3.352262441922053e-06
sI88
F3.0129599640993313e-16
sI89
F2.2475326959042414e-11
sI90
F1.5068638886943216e-16
sI91
F3.352262441922053e-06
sI92
F3.352262441922053e-06
sI93
F3.352262441922053e-06
sI94
F3.352262441922053e-06
sI95
F2.2475326959042414e-11
sI97
F3.352262441922053e-06
sI98
F3.352262441922053e-06
sI99
F3.352262441922053e-06
ssS'g'
p103
(dp104
I0
F6.867943188373946e-06
sI17
F6.867943188373946e-06
sI18
F6.867943188373946e-06
sI23
F6.867943188373946e-06
sI27
F6.867943188373946e-06
sI34
F6.867943188373946e-06
sI49
F6.867943188373946e-06
sI50
F1.7799047541741605e-20
sI58
F9.433728727746416e-11
sI59
F1.2958062591338723e-15
sI60
F6.867943188373946e-06
sI64
F9.433728727746416e-11
sI65
F1.2958062591338723e-15
sI68
F9.433728727746416e-11
sI69
F1.7799047541741605e-20
sI71
F6.867943188373946e-06
sI72
F1.2958062591338723e-15
sI73
F1.7799047541741605e-20
sI74
F9.433728727746416e-11
sI75
F6.867943188373946e-06
sI76
F6.867943188373946e-06
sI77
F9.433728727746416e-11
sI78
F9.433728727746416e-11
sI79
F6.867943188373946e-06
sI80
F9.433728727746416e-11
sI81
F1.2958062591338723e-15
sI82
F1.2958062591338723e-15
sI84
F6.867943188373946e-06
sI88
F1.7799047541741605e-20
sI89
F9.433728727746416e-11
sI90
F1.2958062591338723e-15
sI91
F6.867943188373946e-06
sI92
F0.9994780363176836
sI93
F6.867943188373946e-06
sI94
F6.867943188373946e-06
sI95
F9.433728727746416e-11
sI97
F6.867943188373946e-06
sI98
F6.867943188373946e-06
sI99
F6.867943188373946e-06
ssS'f'
p105
(dp106
I0
F5.449116153359925e-06
sI17
F5.449116153359925e-06
sI18
F5.449116153359925e-06
sI23
F5.449116153359925e-06
sI27
F5.449116153359925e-06
sI34
F5.449116153359925e-06
sI49
F5.449116153359925e-06
sI50
F7.053330735508705e-21
sI58
F5.938573370561613e-11
sI59
F6.471995216288077e-16
sI60
F5.449116153359925e-06
sI64
F5.938573370561613e-11
sI65
F6.471995216288077e-16
sI68
F5.938573370561613e-11
sI69
F7.053330735508705e-21
sI71
F5.449116153359925e-06
sI72
F6.471995216288077e-16
sI73
F1.2938629901217166e-15
sI74
F5.938573370561613e-11
sI75
F5.449116153359925e-06
sI76
F5.449116153359925e-06
sI77
F5.938573370561613e-11
sI78
F5.938573370561613e-11
sI79
F5.449116153359925e-06
sI80
F5.938573370561613e-11
sI81
F6.471995216288077e-16
sI82
F6.471995216288077e-16
sI84
F5.449116153359925e-06
sI88
F7.053330735508705e-21
sI89
F5.938573370561613e-11
sI90
F6.471995216288077e-16
sI91
F5.449116153359925e-06
sI92
F5.449116153359925e-06
sI93
F5.449116153359925e-06
sI94
F5.449116153359925e-06
sI95
F5.938573370561613e-11
sI97
F5.449116153359925e-06
sI98
F5.449116153359925e-06
sI99
F5.449116153359925e-06
ssS'i'
p107
(dp108
I0
F1.7459685585981969e-06
sI17
F1.7459685585981969e-06
sI18
F1.7459685585981969e-06
sI23
F1.7459685585981969e-06
sI27
F1.7459685585981969e-06
sI34
F1.7459685585981969e-06
sI49
F1.7459685585981969e-06
sI50
F7.434224325293046e-23
sI58
F6.09681241522693e-12
sI59
F2.1289685569314707e-17
sI60
F1.7459685585981969e-06
sI64
F6.09681241522693e-12
sI65
F1.2192006814350592e-11
sI68
F6.09681241522693e-12
sI69
F7.434224325293046e-23
sI71
F1.7459685585981969e-06
sI72
F2.1289685569314707e-17
sI73
F7.434224325293046e-23
sI74
F6.09681241522693e-12
sI75
F1.7459685585981969e-06
sI76
F1.7459685585981969e-06
sI77
F6.09681241522693e-12
sI78
F6.09681241522693e-12
sI79
F1.7459685585981969e-06
sI80
F6.09681241522693e-12
sI81
F2.1289685569314707e-17
sI82
F2.1289685569314707e-17
sI84
F1.7459685585981969e-06
sI88
F7.434224325293046e-23
sI89
F6.09681241522693e-12
sI90
F2.1289685569314707e-17
sI91
F1.7459685585981969e-06
sI92
F1.7459685585981969e-06
sI93
F1.7459685585981969e-06
sI94
F1.7459685585981969e-06
sI95
F6.09681241522693e-12
sI97
F1.7459685585981969e-06
sI98
F1.7459685585981969e-06
sI99
F1.7459685585981969e-06
ssS'h'
p109
(dp110
I0
F2.4763999088684834e-06
sI17
F2.4763999088684834e-06
sI18
F2.4763999088684834e-06
sI23
F2.4763999088684834e-06
sI27
F2.4763999088684834e-06
sI34
F2.4763999088684834e-06
sI49
F2.4763999088684834e-06
sI50
F3.0086599465367866e-22
sI58
F1.2265113017287666e-11
sI59
F6.074664951654565e-17
sI60
F2.4763999088684834e-06
sI64
F1.2265113017287666e-11
sI65
F6.074664951654565e-17
sI68
F1.2265113017287666e-11
sI69
F3.0086599465367866e-22
sI71
F2.4763999088684834e-06
sI72
F6.074664951654565e-17
sI73
F3.0086599465367866e-22
sI74
F1.2265113017287666e-11
sI75
F2.4763999088684834e-06
sI76
F2.4763999088684834e-06
sI77
F4.9518676691476526e-06
sI78
F1.2265113017287666e-11
sI79
F2.4763999088684834e-06
sI80
F1.2265113017287666e-11
sI81
F6.074664951654565e-17
sI82
F6.074664951654565e-17
sI84
F2.4763999088684834e-06
sI88
F3.0086599465367866e-22
sI89
F1.2265113017287666e-11
sI90
F6.074664951654565e-17
sI91
F2.4763999088684834e-06
sI92
F2.4763999088684834e-06
sI93
F2.4763999088684834e-06
sI94
F2.4763999088684834e-06
sI95
F1.2265113017287666e-11
sI97
F2.4763999088684834e-06
sI98
F2.4763999088684834e-06
sI99
F2.4763999088684834e-06
ssS'k'
p111
(dp112
I0
F2.2596827405432277e-05
sI17
F2.2596827405432277e-05
sI18
F2.2596827405432277e-05
sI23
F2.2596827405432277e-05
sI27
F2.2596827405432277e-05
sI34
F2.2596827405432277e-05
sI49
F2.2596827405432277e-05
sI50
F2.0858345693849132e-18
sI58
F1.0212332175817905e-09
sI59
F4.6153261516779975e-14
sI60
F2.2596827405432277e-05
sI64
F1.0212332175817905e-09
sI65
F4.6153261516779975e-14
sI68
F1.0212332175817905e-09
sI69
F2.0858345693849132e-18
sI71
F2.2596827405432277e-05
sI72
F4.6153261516779975e-14
sI73
F2.0858345693849132e-18
sI74
F1.0212332175817905e-09
sI75
F2.2596827405432277e-05
sI76
F2.2596827405432277e-05
sI77
F1.0212332175817905e-09
sI78
F1.0212332175817905e-09
sI79
F2.2596827405432277e-05
sI80
F1.0212332175817905e-09
sI81
F2.0389587872883054e-09
sI82
F4.6153261516779975e-14
sI84
F2.2596827405432277e-05
sI88
F2.0858345693849132e-18
sI89
F1.0212332175817905e-09
sI90
F4.6153261516779975e-14
sI91
F2.2596827405432277e-05
sI92
F2.2596827405432277e-05
sI93
F2.2596827405432277e-05
sI94
F2.2596827405432277e-05
sI95
F1.0212332175817905e-09
sI97
F2.2596827405432277e-05
sI98
F2.2596827405432277e-05
sI99
F2.2596827405432277e-05
ssS'j'
p113
(dp114
I0
F0.00012382367508667657
sI17
F0.00012382367508667657
sI18
F0.00012382367508667657
sI23
F0.00012382367508667657
sI27
F0.00012382367508667657
sI34
F0.00012382367508667657
sI49
F0.00012382367508667657
sI50
F1.8806360025487008e-15
sI58
F3.06646050239417e-08
sI59
F7.594008178291653e-12
sI60
F0.00012382367508667657
sI64
F0.00024531684019153357
sI65
F7.594008178291653e-12
sI68
F3.06646050239417e-08
sI69
F1.8806360025487008e-15
sI71
F0.00012382367508667657
sI72
F7.594008178291653e-12
sI73
F1.8806360025487008e-15
sI74
F3.06646050239417e-08
sI75
F0.00012382367508667657
sI76
F0.00012382367508667657
sI77
F3.06646050239417e-08
sI78
F3.06646050239417e-08
sI79
F0.00012382367508667657
sI80
F3.06646050239417e-08
sI81
F7.594008178291653e-12
sI82
F7.594008178291653e-12
sI84
F0.00012382367508667657
sI88
F1.8806360025487008e-15
sI89
F3.06646050239417e-08
sI90
F7.594008178291653e-12
sI91
F0.00012382367508667657
sI92
F0.00012382367508667657
sI93
F0.00012382367508667657
sI94
F0.00012382367508667657
sI95
F3.06646050239417e-08
sI97
F0.00012382367508667657
sI98
F0.00012382367508667657
sI99
F0.00012382367508667657
ssS'm'
p115
(dp116
I0
F5.198531934581674e-06
sI17
F5.198531934581674e-06
sI18
F5.198531934581674e-06
sI23
F5.198531934581674e-06
sI27
F5.198531934581674e-06
sI34
F5.198531934581674e-06
sI49
F5.198531934581674e-06
sI50
F5.842690101016714e-21
sI58
F5.404946854973097e-11
sI59
F5.619557766058885e-16
sI60
F5.198531934581674e-06
sI64
F5.404946854973097e-11
sI65
F5.619557766058885e-16
sI68
F5.404946854973097e-11
sI69
F5.842690101016714e-21
sI71
F5.198531934581674e-06
sI72
F5.619557766058885e-16
sI73
F5.842690101016714e-21
sI74
F5.404946854973097e-11
sI75
F5.198531934581674e-06
sI76
F5.198531934581674e-06
sI77
F5.404946854973097e-11
sI78
F5.404946854973097e-11
sI79
F0.9996049115729718
sI80
F5.404946854973097e-11
sI81
F5.619557766058885e-16
sI82
F5.619557766058885e-16
sI84
F5.198531934581674e-06
sI88
F5.842690101016714e-21
sI89
F5.404946854973097e-11
sI90
F5.619557766058885e-16
sI91
F5.198531934581674e-06
sI92
F5.198531934581674e-06
sI93
F5.198531934581674e-06
sI94
F5.198531934581674e-06
sI95
F5.404946854973097e-11
sI97
F5.198531934581674e-06
sI98
F5.198531934581674e-06
sI99
F5.198531934581674e-06
ssS'l'
p117
(dp118
I0
F3.091228330489403e-06
sI17
F3.091228330489403e-06
sI18
F3.091228330489403e-06
sI23
F3.091228330489403e-06
sI27
F3.091228330489403e-06
sI34
F3.091228330489403e-06
sI49
F3.091228330489403e-06
sI50
F7.304900871832208e-22
sI58
F1.9111385182440607e-11
sI59
F1.181553106217116e-16
sI60
F3.091228330489403e-06
sI64
F1.9111385182440607e-11
sI65
F1.181553106217116e-16
sI68
F1.9111385182440607e-11
sI69
F2.3625510399679727e-16
sI71
F3.091228330489403e-06
sI72
F1.181553106217116e-16
sI73
F7.304900871832208e-22
sI74
F1.9111385182440607e-11
sI75
F3.091228330489403e-06
sI76
F3.091228330489403e-06
sI77
F1.9111385182440607e-11
sI78
F1.9111385182440607e-11
sI79
F3.091228330489403e-06
sI80
F1.9111385182440607e-11
sI81
F1.181553106217116e-16
sI82
F1.181553106217116e-16
sI84
F3.091228330489403e-06
sI88
F7.304900871832208e-22
sI89
F1.9111385182440607e-11
sI90
F1.181553106217116e-16
sI91
F3.091228330489403e-06
sI92
F3.091228330489403e-06
sI93
F3.091228330489403e-06
sI94
F3.091228330489403e-06
sI95
F1.9111385182440607e-11
sI97
F3.091228330489403e-06
sI98
F3.091228330489403e-06
sI99
F3.091228330489403e-06
ssS'o'
p119
(dp120
I0
F1.6575556358549175e-06
sI17
F1.6575556358549175e-06
sI18
F1.6575556358549175e-06
sI23
F1.6575556358549175e-06
sI27
F1.6575556358549175e-06
sI34
F1.6575556358549175e-06
sI49
F1.6575556358549175e-06
sI50
F6.038964055524943e-23
sI58
F5.4949813719087995e-12
sI59
F1.8216474683850434e-17
sI60
F1.6575556358549175e-06
sI64
F5.4949813719087995e-12
sI65
F1.8216474683850434e-17
sI68
F5.4949813719087995e-12
sI69
F3.642835975501867e-17
sI71
F1.6575556358549175e-06
sI72
F1.8216474683850434e-17
sI73
F6.038964055524943e-23
sI74
F5.4949813719087995e-12
sI75
F1.6575556358549175e-06
sI76
F1.6575556358549175e-06
sI77
F5.4949813719087995e-12
sI78
F5.4949813719087995e-12
sI79
F1.6575556358549175e-06
sI80
F5.4949813719087995e-12
sI81
F1.8216474683850434e-17
sI82
F1.8216474683850434e-17
sI84
F1.6575556358549175e-06
sI88
F6.038964055524943e-23
sI89
F5.4949813719087995e-12
sI90
F1.8216474683850434e-17
sI91
F1.6575556358549175e-06
sI92
F1.6575556358549175e-06
sI93
F1.6575556358549175e-06
sI94
F1.6575556358549175e-06
sI95
F5.4949813719087995e-12
sI97
F1.6575556358549175e-06
sI98
F1.6575556358549175e-06
sI99
F1.6575556358549175e-06
ssS'n'
p121
(dp122
I0
F1.7715293967588098e-06
sI17
F1.7715293967588098e-06
sI18
F1.7715293967588098e-06
sI23
F1.7715293967588098e-06
sI27
F1.7715293967588098e-06
sI34
F1.7715293967588098e-06
sI49
F1.7715293967588098e-06
sI50
F7.87922387918662e-23
sI58
F6.276632807161265e-12
sI59
F2.22384790610939e-17
sI60
F1.7715293967588098e-06
sI64
F6.276632807161265e-12
sI65
F2.22384790610939e-17
sI68
F6.276632807161265e-12
sI69
F7.87922387918662e-23
sI71
F1.7715293967588098e-06
sI72
F1.2551575489913887e-11
sI73
F7.87922387918662e-23
sI74
F6.276632807161265e-12
sI75
F1.7715293967588098e-06
sI76
F1.7715293967588098e-06
sI77
F6.276632807161265e-12
sI78
F6.276632807161265e-12
sI79
F1.7715293967588098e-06
sI80
F6.276632807161265e-12
sI81
F2.22384790610939e-17
sI82
F2.22384790610939e-17
sI84
F1.7715293967588098e-06
sI88
F7.87922387918662e-23
sI89
F6.276632807161265e-12
sI90
F2.22384790610939e-17
sI91
F1.7715293967588098e-06
sI92
F1.7715293967588098e-06
sI93
F1.7715293967588098e-06
sI94
F1.7715293967588098e-06
sI95
F6.276632807161265e-12
sI97
F1.7715293967588098e-06
sI98
F1.7715293967588098e-06
sI99
F1.7715293967588098e-06
ssS'q'
p123
(dp124
I0
F0.00011441647597254005
sI17
F0.00011441647597254005
sI18
F0.00011441647597254005
sI23
F0.00011441647597254005
sI27
F0.00011441647597254005
sI34
F0.00011441647597254005
sI49
F0.00011441647597254005
sI50
F1.3710214719640188e-15
sI58
F2.618225994794967e-08
sI59
F5.991363832482762e-12
sI60
F0.00011441647597254005
sI64
F2.618225994794967e-08
sI65
F5.991363832482762e-12
sI68
F2.618225994794967e-08
sI69
F1.3710214719640188e-15
sI71
F0.00011441647597254005
sI72
F5.991363832482762e-12
sI73
F1.3710214719640188e-15
sI74
F2.618225994794967e-08
sI75
F0.00011441647597254005
sI76
F0.00011441647597254005
sI77
F2.618225994794967e-08
sI78
F2.618225994794967e-08
sI79
F0.00011441647597254005
sI80
F2.618225994794967e-08
sI81
F5.991363832482762e-12
sI82
F5.991363832482762e-12
sI84
F0.00011441647597254005
sI88
F1.3710214719640188e-15
sI89
F2.618225994794967e-08
sI90
F5.991363832482762e-12
sI91
F0.00011441647597254005
sI92
F0.00011441647597254005
sI93
F0.00011441647597254005
sI94
F0.991304347826087
sI95
F2.618225994794967e-08
sI97
F0.00011441647597254005
sI98
F0.00011441647597254005
sI99
F0.00011441647597254005
ssS'p'
p125
(dp126
I0
F6.340430388414766e-06
sI17
F6.340430388414766e-06
sI18
F6.340430388414766e-06
sI23
F6.340430388414766e-06
sI27
F6.340430388414766e-06
sI34
F6.340430388414766e-06
sI49
F6.340430388414766e-06
sI50
F1.2929000199593078e-20
sI58
F8.040211502066684e-11
sI59
F1.0195680267397105e-15
sI60
F6.340430388414766e-06
sI64
F8.040211502066684e-11
sI65
F1.0195680267397105e-15
sI68
F8.040211502066684e-11
sI69
F1.2929000199593078e-20
sI71
F6.340430388414766e-06
sI72
F1.0195680267397105e-15
sI73
F1.2929000199593078e-20
sI74
F8.040211502066684e-11
sI75
F6.340430388414766e-06
sI76
F6.340430388414766e-06
sI77
F8.040211502066684e-11
sI78
F8.040211502066684e-11
sI79
F6.340430388414766e-06
sI80
F8.040211502066684e-11
sI81
F1.0195680267397105e-15
sI82
F1.0195680267397105e-15
sI84
F6.340430388414766e-06
sI88
F1.2929000199593078e-20
sI89
F8.040211502066684e-11
sI90
F1.0195680267397105e-15
sI91
F6.340430388414766e-06
sI92
F6.340430388414766e-06
sI93
F6.340430388414766e-06
sI94
F6.340430388414766e-06
sI95
F8.040211502066684e-11
sI97
F6.340430388414766e-06
sI98
F6.340430388414766e-06
sI99
F0.9995181272904805
ssS's'
p127
(dp128
I0
F1.947267983019823e-06
sI17
F1.947267983019823e-06
sI18
F1.947267983019823e-06
sI23
F1.947267983019823e-06
sI27
F1.947267983019823e-06
sI34
F1.947267983019823e-06
sI49
F1.947267983019823e-06
sI50
F1.1502516898111536e-22
sI58
F7.58370519538818e-12
sI59
F2.953501263928099e-17
sI60
F1.947267983019823e-06
sI64
F7.58370519538818e-12
sI65
F2.953501263928099e-17
sI68
F7.58370519538818e-12
sI69
F1.1502516898111536e-22
sI71
F1.947267983019823e-06
sI72
F2.953501263928099e-17
sI73
F1.1502516898111536e-22
sI74
F7.58370519538818e-12
sI75
F1.947267983019823e-06
sI76
F1.947267983019823e-06
sI77
F7.58370519538818e-12
sI78
F7.58370519538818e-12
sI79
F1.947267983019823e-06
sI80
F3.893959604444797e-06
sI81
F2.953501263928099e-17
sI82
F2.953501263928099e-17
sI84
F1.947267983019823e-06
sI88
F1.1502516898111536e-22
sI89
F7.58370519538818e-12
sI90
F2.953501263928099e-17
sI91
F1.947267983019823e-06
sI92
F1.947267983019823e-06
sI93
F1.947267983019823e-06
sI94
F1.947267983019823e-06
sI95
F7.58370519538818e-12
sI97
F1.947267983019823e-06
sI98
F1.947267983019823e-06
sI99
F1.947267983019823e-06
ssS'r'
p129
(dp130
I0
F2.028043789521503e-06
sI17
F2.028043789521503e-06
sI18
F2.028043789521503e-06
sI23
F2.028043789521503e-06
sI27
F2.028043789521503e-06
sI34
F2.028043789521503e-06
sI49
F2.028043789521503e-06
sI50
F1.3533162578854817e-22
sI58
F8.225923224433478e-12
sI59
F1.644931070392568e-11
sI60
F2.028043789521503e-06
sI64
F8.225923224433478e-12
sI65
F3.336506501678603e-17
sI68
F8.225923224433478e-12
sI69
F1.3533162578854817e-22
sI71
F2.028043789521503e-06
sI72
F3.336506501678603e-17
sI73
F1.3533162578854817e-22
sI74
F8.225923224433478e-12
sI75
F2.028043789521503e-06
sI76
F2.028043789521503e-06
sI77
F8.225923224433478e-12
sI78
F8.225923224433478e-12
sI79
F2.028043789521503e-06
sI80
F8.225923224433478e-12
sI81
F3.336506501678603e-17
sI82
F3.336506501678603e-17
sI84
F2.028043789521503e-06
sI88
F1.3533162578854817e-22
sI89
F8.225923224433478e-12
sI90
F3.336506501678603e-17
sI91
F2.028043789521503e-06
sI92
F2.028043789521503e-06
sI93
F2.028043789521503e-06
sI94
F2.028043789521503e-06
sI95
F8.225923224433478e-12
sI97
F2.028043789521503e-06
sI98
F2.028043789521503e-06
sI99
F2.028043789521503e-06
ssS'u'
p131
(dp132
I0
F4.72799826009664e-06
sI17
F4.72799826009664e-06
sI18
F4.72799826009664e-06
sI23
F4.72799826009664e-06
sI27
F4.72799826009664e-06
sI34
F4.72799826009664e-06
sI49
F4.72799826009664e-06
sI50
F3.997598920909188e-21
sI58
F4.4707935094953714e-11
sI59
F4.2275807868290934e-16
sI60
F4.72799826009664e-06
sI64
F4.4707935094953714e-11
sI65
F8.938374057592752e-11
sI68
F4.4707935094953714e-11
sI69
F3.997598920909188e-21
sI71
F4.72799826009664e-06
sI72
F4.2275807868290934e-16
sI73
F3.997598920909188e-21
sI74
F4.4707935094953714e-11
sI75
F4.72799826009664e-06
sI76
F4.72799826009664e-06
sI77
F4.4707935094953714e-11
sI78
F4.4707935094953714e-11
sI79
F4.72799826009664e-06
sI80
F4.4707935094953714e-11
sI81
F4.2275807868290934e-16
sI82
F4.2275807868290934e-16
sI84
F4.72799826009664e-06
sI88
F3.997598920909188e-21
sI89
F4.4707935094953714e-11
sI90
F4.2275807868290934e-16
sI91
F4.72799826009664e-06
sI92
F4.72799826009664e-06
sI93
F4.72799826009664e-06
sI94
F4.72799826009664e-06
sI95
F4.4707935094953714e-11
sI97
F4.72799826009664e-06
sI98
F4.72799826009664e-06
sI99
F4.72799826009664e-06
ssS't'
p133
(dp134
I0
F1.3963399138179004e-06
sI17
F1.3963399138179004e-06
sI18
F1.3963399138179004e-06
sI23
F1.3963399138179004e-06
sI27
F1.3963399138179004e-06
sI34
F1.3963399138179004e-06
sI49
F1.3963399138179004e-06
sI50
F3.041267327475232e-23
sI58
F3.899530309841963e-12
sI59
F1.0890139633550036e-17
sI60
F0.9998938781665498
sI64
F3.899530309841963e-12
sI65
F1.0890139633550036e-17
sI68
F3.899530309841963e-12
sI69
F3.041267327475232e-23
sI71
F1.3963399138179004e-06
sI72
F1.0890139633550036e-17
sI73
F3.041267327475232e-23
sI74
F3.899530309841963e-12
sI75
F1.3963399138179004e-06
sI76
F1.3963399138179004e-06
sI77
F3.899530309841963e-12
sI78
F3.899530309841963e-12
sI79
F1.3963399138179004e-06
sI80
F3.899530309841963e-12
sI81
F1.0890139633550036e-17
sI82
F1.0890139633550036e-17
sI84
F1.3963399138179004e-06
sI88
F3.041267327475232e-23
sI89
F3.899530309841963e-12
sI90
F1.0890139633550036e-17
sI91
F1.3963399138179004e-06
sI92
F1.3963399138179004e-06
sI93
F1.3963399138179004e-06
sI94
F1.3963399138179004e-06
sI95
F3.899530309841963e-12
sI97
F1.3963399138179004e-06
sI98
F1.3963399138179004e-06
sI99
F1.3963399138179004e-06
ssS'w'
p135
(dp136
I0
F7.581616097287298e-06
sI17
F7.581616097287298e-06
sI18
F7.581616097287298e-06
sI23
F7.581616097287298e-06
sI27
F7.581616097287298e-06
sI34
F7.581616097287298e-06
sI49
F7.581616097287298e-06
sI50
F2.6432433352585448e-20
sI58
F1.1496180529329176e-10
sI59
F1.7431925471696578e-15
sI60
F7.581616097287298e-06
sI64
F1.1496180529329176e-10
sI65
F1.7431925471696578e-15
sI68
F1.1496180529329176e-10
sI69
F2.6432433352585448e-20
sI71
F7.581616097287298e-06
sI72
F1.7431925471696578e-15
sI73
F2.6432433352585448e-20
sI74
F1.5154495097372306e-05
sI75
F7.581616097287298e-06
sI76
F7.581616097287298e-06
sI77
F1.1496180529329176e-10
sI78
F1.1496180529329176e-10
sI79
F7.581616097287298e-06
sI80
F1.1496180529329176e-10
sI81
F1.7431925471696578e-15
sI82
F1.7431925471696578e-15
sI84
F7.581616097287298e-06
sI88
F2.6432433352585448e-20
sI89
F1.1496180529329176e-10
sI90
F1.7431925471696578e-15
sI91
F7.581616097287298e-06
sI92
F7.581616097287298e-06
sI93
F7.581616097287298e-06
sI94
F7.581616097287298e-06
sI95
F1.1496180529329176e-10
sI97
F7.581616097287298e-06
sI98
F7.581616097287298e-06
sI99
F7.581616097287298e-06
ssS'v'
p137
(dp138
I0
F1.2476917702250836e-05
sI17
F1.2476917702250836e-05
sI18
F1.2476917702250836e-05
sI23
F1.2476917702250836e-05
sI27
F1.2476917702250836e-05
sI34
F1.2476917702250836e-05
sI49
F1.2476917702250836e-05
sI50
F1.938738474172388e-19
sI58
F2.4930173036248663e-05
sI59
F7.769300561398427e-15
sI60
F1.2476917702250836e-05
sI64
F3.113469506974806e-10
sI65
F7.769300561398427e-15
sI68
F3.113469506974806e-10
sI69
F1.938738474172388e-19
sI71
F1.2476917702250836e-05
sI72
F7.769300561398427e-15
sI73
F1.938738474172388e-19
sI74
F3.113469506974806e-10
sI75
F1.2476917702250836e-05
sI76
F1.2476917702250836e-05
sI77
F3.113469506974806e-10
sI78
F3.113469506974806e-10
sI79
F1.2476917702250836e-05
sI80
F3.113469506974806e-10
sI81
F7.769300561398427e-15
sI82
F7.769300561398427e-15
sI84
F1.2476917702250836e-05
sI88
F1.938738474172388e-19
sI89
F3.113469506974806e-10
sI90
F7.769300561398427e-15
sI91
F1.2476917702250836e-05
sI92
F1.2476917702250836e-05
sI93
F1.2476917702250836e-05
sI94
F1.2476917702250836e-05
sI95
F3.113469506974806e-10
sI97
F1.2476917702250836e-05
sI98
F1.2476917702250836e-05
sI99
F1.2476917702250836e-05
ssS'y'
p139
(dp140
I0
F7.542501998763029e-06
sI17
F7.542501998763029e-06
sI18
F7.542501998763029e-06
sI23
F7.542501998763029e-06
sI27
F7.542501998763029e-06
sI34
F7.542501998763029e-06
sI49
F7.542501998763029e-06
sI50
F2.5891172769482535e-20
sI58
F1.1377867280268859e-10
sI59
F1.7163517340617668e-15
sI60
F7.542501998763029e-06
sI64
F1.1377867280268859e-10
sI65
F1.7163517340617668e-15
sI68
F1.1377867280268859e-10
sI69
F2.5891172769482535e-20
sI71
F7.542501998763029e-06
sI72
F1.7163517340617668e-15
sI73
F2.5891172769482535e-20
sI74
F1.1377867280268859e-10
sI75
F7.542501998763029e-06
sI76
F7.542501998763029e-06
sI77
F1.1377867280268859e-10
sI78
F1.1377867280268859e-10
sI79
F7.542501998763029e-06
sI80
F1.1377867280268859e-10
sI81
F2.274269028735885e-10
sI82
F1.7163517340617668e-15
sI84
F7.542501998763029e-06
sI88
F2.5891172769482535e-20
sI89
F1.1377867280268859e-10
sI90
F1.7163517340617668e-15
sI91
F7.542501998763029e-06
sI92
F7.542501998763029e-06
sI93
F7.542501998763029e-06
sI94
F7.542501998763029e-06
sI95
F1.1377867280268859e-10
sI97
F7.542501998763029e-06
sI98
F7.542501998763029e-06
sI99
F7.542501998763029e-06
ssS'x'
p141
(dp142
I0
F5.9080704241994565e-05
sI17
F5.9080704241994565e-05
sI18
F5.9080704241994565e-05
sI23
F5.9080704241994565e-05
sI27
F5.9080704241994565e-05
sI34
F5.9080704241994565e-05
sI49
F5.9080704241994565e-05
sI50
F9.747037587461075e-17
sI58
F6.981059227460069e-09
sI59
F8.248917910268308e-13
sI60
F5.9080704241994565e-05
sI64
F6.981059227460069e-09
sI65
F8.248917910268308e-13
sI68
F6.981059227460069e-09
sI69
F9.747037587461075e-17
sI71
F5.9080704241994565e-05
sI72
F8.248917910268308e-13
sI73
F1.642375833487191e-12
sI74
F6.981059227460069e-09
sI75
F5.9080704241994565e-05
sI76
F5.9080704241994565e-05
sI77
F6.981059227460069e-09
sI78
F6.981059227460069e-09
sI79
F5.9080704241994565e-05
sI80
F6.981059227460069e-09
sI81
F8.248917910268308e-13
sI82
F8.248917910268308e-13
sI84
F5.9080704241994565e-05
sI88
F9.747037587461075e-17
sI89
F6.981059227460069e-09
sI90
F8.248917910268308e-13
sI91
F5.9080704241994565e-05
sI92
F5.9080704241994565e-05
sI93
F5.9080704241994565e-05
sI94
F5.9080704241994565e-05
sI95
F6.981059227460069e-09
sI97
F5.9080704241994565e-05
sI98
F5.9080704241994565e-05
sI99
F5.9080704241994565e-05
ssS'z'
p143
(dp144
I0
F0.00013130252100840336
sI17
F0.00013130252100840336
sI18
F0.00013130252100840336
sI23
F0.00013130252100840336
sI27
F0.00013130252100840336
sI34
F0.00013130252100840336
sI49
F0.00013130252100840336
sI50
F2.3778379030604253e-15
sI58
F3.448070404632441e-08
sI59
F9.0548067348541e-12
sI60
F0.00013130252100840336
sI64
F3.448070404632441e-08
sI65
F9.0548067348541e-12
sI68
F3.448070404632441e-08
sI69
F2.3778379030604253e-15
sI71
F0.00013130252100840336
sI72
F6.82732427807999e-08
sI73
F2.3778379030604253e-15
sI74
F3.448070404632441e-08
sI75
F0.00013130252100840336
sI76
F0.00013130252100840336
sI77
F3.448070404632441e-08
sI78
F3.448070404632441e-08
sI79
F0.00013130252100840336
sI80
F3.448070404632441e-08
sI81
F9.0548067348541e-12
sI82
F9.0548067348541e-12
sI84
F0.00013130252100840336
sI88
F2.3778379030604253e-15
sI89
F3.448070404632441e-08
sI90
F9.0548067348541e-12
sI91
F0.00013130252100840336
sI92
F0.00013130252100840336
sI93
F0.00013130252100840336
sI94
F0.00013130252100840336
sI95
F3.448070404632441e-08
sI97
F0.00013130252100840336
sI98
F0.00013130252100840336
sI99
F0.00013130252100840336
ss.