(dp0
S'!'
p1
F0.0
sS' '
p2
F0.0
sS'"'
p3
F0.0
sS"'"
p4
F0.0019229029047145056
sS')'
p5
F0.003393358067143245
sS'('
p6
F0.007442765360600851
sS'-'
p7
F0.004750701294000543
sS','
p8
F0.000226223871142883
sS'.'
p9
F0.0011763641299429915
sS'1'
p10
F0.0016740566464573342
sS'0'
p11
F2.26223871142883e-05
sS'3'
p12
F0.0013347208397430097
sS'2'
p13
F0.0019229029047145056
sS'5'
p14
F0.0005429372907429192
sS'4'
p15
F0.0008596507103429554
sS'7'
p16
F0.0004072029680571894
sS'6'
p17
F0.0004072029680571894
sS'9'
p18
F0.0001131119355714415
sS'8'
p19
F0.0002036014840285947
sS'?'
p20
F0.0
sS'A'
p21
F0.0881594425843815
sS'C'
p22
F0.018459867885259253
sS'B'
p23
F0.04130847887069043
sS'E'
p24
F0.015496335173287485
sS'D'
p25
F0.016695321690344767
sS'G'
p26
F0.007895213102886616
sS'F'
p27
F0.028572074925346122
sS'I'
p28
F0.11403945344312733
sS'H'
p29
F0.06723373450366482
sS'K'
p30
F0.0026694416794860194
sS'J'
p31
F0.005406750520314903
sS'M'
p32
F0.031083159895032124
sS'L'
p33
F0.012419690525744277
sS'O'
p34
F0.03139987331463216
sS'N'
p35
F0.019229029047145053
sS'Q'
p36
F0.0006334268392000724
sS'P'
p37
F0.019093294724459326
sS'S'
p38
F0.053253099267034656
sS'R'
p39
F0.0123744457515157
sS'U'
p40
F0.006334268392000724
sS'T'
p41
F0.22887069043525474
sS'W'
p42
F0.04961089494163424
sS'V'
p43
F0.0028277983892860373
sS'Y'
p44
F0.008754863813229572
sS'X'
p45
F4.52447742285766e-05
sS'Z'
p46
F6.78671613428649e-05
sS'a'
p47
F0.010609899556601212
sS'c'
p48
F0.0007691611618858022
sS'b'
p49
F0.0036422043254004163
sS'e'
p50
F0.0008144059361143788
sS'd'
p51
F0.0004976925165143426
sS'g'
p52
F0.0002714686453714596
sS'f'
p53
F0.001583567098000181
sS'i'
p54
F0.004547099809971949
sS'h'
p55
F0.00318975658311465
sS'k'
p56
F0.0
sS'j'
p57
F6.78671613428649e-05
sS'm'
p58
F0.0008370283232286671
sS'l'
p59
F0.0004976925165143426
sS'o'
p60
F0.0023074834856574066
sS'n'
p61
F0.0011989865170572798
sS'q'
p62
F2.26223871142883e-05
sS'p'
p63
F0.0007239163876572256
sS's'
p64
F0.002420595421228848
sS'r'
p65
F0.0006560492263143607
sS'u'
p66
F0.0003167134196000362
sS't'
p67
F0.013324586010315808
sS'w'
p68
F0.0017193014206859107
sS'v'
p69
F4.52447742285766e-05
sS'y'
p70
F0.0006108044520857841
sS'x'
p71
F0.0
sS'z'
p72
F0.0
s.