(dp0
S'adv'
p1
(dp2
g1
F0.09943958753642682
sS'verb'
p3
F0.2497197937682134
sS'noun'
p4
F0.03467832324590899
sS'adp'
p5
F0.1443398341179108
sS'prt'
p6
F0.02741537771800045
sS'det'
p7
F0.07682134050661286
sS'.'
p8
F0.15005604124635732
sS'pron'
p9
F0.04173952028693118
sS'num'
p10
F0.014862138533960996
sS'x'
p11
F8.966599417171039e-05
sS'conj'
p12
F0.01613987895090787
sS'adj'
p13
F0.14431741761936787
ssg3
(dp14
g1
F0.10389201903615776
sg3
F0.19002653027733712
sg4
F0.10277063617964007
sg5
F0.1751135058257207
sg6
F0.06069142825884798
sg7
F0.16350309064055576
sg8
F0.07371724741534927
sg9
F0.0439253870138395
sg10
F0.00977791149280674
sg11
F0.00018461790930474262
sg12
F0.014680542639899348
sg13
F0.06102647557573437
ssg4
(dp15
g1
F0.02457462128730642
sg3
F0.15474536401606492
sg4
F0.15556888200043076
sg5
F0.2524188201310027
sg6
F0.01736144837809189
sg7
F0.015545485643336472
sg8
F0.27532951277297507
sg9
F0.018417240665740384
sg10
F0.009122045365283016
sg11
F0.000358969377800489
sg12
F0.059508676501019896
sg13
F0.013252304794563937
ssg5
(dp16
g1
F0.015289409562537316
sg3
F0.043149214955382355
sg4
F0.2667618724887447
sg5
F0.019210598505752692
sg6
F0.013732229591260428
sg7
F0.4513320746800923
sg8
F0.009956269868164142
sg9
F0.0567362153265237
sg10
F0.03247486727662939
sg11
F0.00046796082038372787
sg12
F0.0018879798615481435
sg13
F0.08894482903293476
ssg6
(dp17
g1
F0.026442737180632482
sg3
F0.661961765231374
sg4
F0.03930677148472396
sg5
F0.08437555833482223
sg6
F0.0087546900125067
sg7
F0.08031088082901554
sg8
F0.05954082544220118
sg9
F0.005315347507593353
sg10
F0.005672681793818117
sg11
F8.933357155619081e-05
sg12
F0.009737359299624798
sg13
F0.018134715025906734
ssg7
(dp18
g1
F0.01814029192481361
sg3
F0.06588435016976443
sg4
F0.6169186880884875
sg5
F0.00954706150022752
sg6
F0.0016713920683258077
sg7
F0.006265532570268473
sg8
F0.012592320347229515
sg9
F0.009617067450733312
sg10
F0.010177115054779657
sg11
F0.0013913682663026358
sg12
F0.0006213028107389128
sg13
F0.24704224859113025
ssg8
(dp19
g1
F0.043441828798868785
sg3
F0.07743940227116011
sg4
F0.09027032216956017
sg5
F0.07114614155908769
sg6
F0.014454424048809866
sg7
F0.0732409856241326
sg8
F0.09333403161468835
sg9
F0.04113750032731939
sg10
F0.014515523667373676
sg11
F0.0012830919898400063
sg12
F0.07205390732060715
sg13
F0.03196382902581022
ssg9
(dp20
g1
F0.053680214249977924
sg3
F0.718590894375938
sg4
F0.00782836457812178
sg5
F0.05618175932193414
sg6
F0.023838253038641514
sg7
F0.01709879631537126
sg8
F0.09196856882191942
sg9
F0.008828982606904264
sg10
F0.0009417581447364549
sg11
F1.4714971011507108e-05
sg12
F0.010741928838400189
sg13
F0.010123900055916889
ssg10
(dp21
g1
F0.01864681603773585
sg3
F0.04525353773584906
sg4
F0.3714622641509434
sg5
F0.13074882075471697
sg6
F0.005159198113207547
sg7
F0.012897995283018868
sg8
F0.2862617924528302
sg9
F0.008181014150943397
sg10
F0.021079009433962265
sg11
F0.00014740566037735848
sg12
F0.037662146226415096
sg13
F0.057045990566037735
ssg11
(dp22
g1
F0.005823627287853577
sg3
F0.04991680532445923
sg4
F0.04991680532445923
sg5
F0.05324459234608985
sg6
F0.005823627287853577
sg7
F0.004991680532445923
sg8
F0.25873544093178036
sg9
F0.005823627287853577
sg10
F0.0008319467554076539
sg11
F0.5399334442595674
sg12
F0.019966722129783693
sg13
F0.0033277870216306157
ssg12
(dp23
g1
F0.08948354125003968
sg3
F0.1804272608957877
sg4
F0.2624511951242739
sg5
F0.07684982382630226
sg6
F0.022791480176491127
sg7
F0.15309653048915975
sg8
F0.020505983557121545
sg9
F0.053550455512173446
sg10
F0.019744151350665016
sg11
F0.00047614512903533
sg12
F0.000285687077421198
sg13
F0.1203060026029267
ssg13
(dp24
g1
F0.00869015207766136
sg3
F0.017641558727277726
sg4
F0.6657591507851387
sg5
F0.0867777686109507
sg6
F0.01864532629321013
sg7
F0.0054038445672799276
sg8
F0.09072408767153425
sg9
F0.0030663036603140554
sg10
F0.007397629458515524
sg11
F0.0004675081813931744
sg12
F0.0370843989769821
sg13
F0.05792976377086599
ss.