(dp0
S'adv'
p1
F0.09250294091032486
sS'verb'
p2
F0.046330648810062436
sS'noun'
p3
F0.14792778934033118
sS'adp'
p4
F0.13872047778481586
sS'prt'
p5
F0.03330015383223238
sS'det'
p6
F0.2360419871504841
sS'.'
p7
F0.059587367659035384
sS'pron'
p8
F0.13663921817030134
sS'num'
p9
F0.01941000814405936
sS'x'
p10
F0.000452447742285766
sS'conj'
p11
F0.048886978553977015
sS'adj'
p12
F0.04019998190209031
s.